TN:
SF:/home/runner/work/vectorfontstorm/vectorfontstorm/vectorfontstorm/buffer_data.h
FN:19,21,_ZN15vectorfontstorm11buffer_dataI10TestVertexEC2Ev
FN:24,26,_ZN15vectorfontstorm11buffer_dataI10TestVertexED2Ev
FNDA:170,_ZN15vectorfontstorm11buffer_dataI10TestVertexEC2Ev
FNDA:279,_ZN15vectorfontstorm11buffer_dataI10TestVertexED2Ev
FNF:2
FNH:2
DA:19,170
DA:21,170
DA:24,279
DA:26,279
LF:4
LH:4
end_of_record
TN:
SF:/home/runner/work/vectorfontstorm/vectorfontstorm/vectorfontstorm/cast_if_required.h
FN:7,9,_Z16cast_if_requiredIimET_RKT0_
FN:7,9,_Z16cast_if_requiredIjmET_RKT0_
FNDA:980,_Z16cast_if_requiredIimET_RKT0_
FNDA:1548,_Z16cast_if_requiredIjmET_RKT0_
FNF:2
FNH:2
DA:7,2528
DA:8,2528
LF:2
LH:2
end_of_record
TN:
SF:/home/runner/work/vectorfontstorm/vectorfontstorm/vectorfontstorm/contour.h
FN:109,117,_ZNK15vectorfontstorm7contourI10TestVertexE11get_extrudeERNS_11buffer_dataIS1_EE
FN:120,163,_ZN15vectorfontstorm7contourI10TestVertexE11get_windingEv
FN:187,198,_ZN15vectorfontstorm7contourI10TestVertexE7reverseEv
FN:50,52,_ZN15vectorfontstorm7contourI10TestVertexEC2Ev
FN:55,57,_ZN15vectorfontstorm7contourI10TestVertexED2Ev
FN:60,65,_ZN15vectorfontstorm7contourI10TestVertexE26get_second_to_last_segmentEv
FN:68,76,_ZNK15vectorfontstorm7contourI10TestVertexE11get_outlineERNS_11buffer_dataIS1_EE
FN:79,106,_ZNK15vectorfontstorm7contourI10TestVertexE11get_outlineERSt6vectorISt10shared_ptrIN3p2t5PointEESaIS7_EE
FNDA:45,_ZNK15vectorfontstorm7contourI10TestVertexE11get_extrudeERNS_11buffer_dataIS1_EE
FNDA:45,_ZN15vectorfontstorm7contourI10TestVertexE11get_windingEv
FNDA:26,_ZN15vectorfontstorm7contourI10TestVertexE7reverseEv
FNDA:45,_ZN15vectorfontstorm7contourI10TestVertexEC2Ev
FNDA:69,_ZN15vectorfontstorm7contourI10TestVertexED2Ev
FNDA:168,_ZN15vectorfontstorm7contourI10TestVertexE26get_second_to_last_segmentEv
FNDA:45,_ZNK15vectorfontstorm7contourI10TestVertexE11get_outlineERNS_11buffer_dataIS1_EE
FNDA:90,_ZNK15vectorfontstorm7contourI10TestVertexE11get_outlineERSt6vectorISt10shared_ptrIN3p2t5PointEESaIS7_EE
FNF:8
FNH:8
DA:50,45
DA:52,45
DA:55,69
DA:57,69
DA:60,168
DA:64,168
DA:68,45
DA:73,580
DA:74,535
DA:76,45
DA:79,90
DA:84,90
DA:85,90
DA:86,1160
DA:87,1070
DA:89,90
DA:91,0
DA:94,90
DA:99,90
DA:106,90
DA:109,45
DA:114,580
DA:115,535
DA:117,45
DA:120,45
DA:122,45
DA:123,0
DA:127,45
DA:128,45
DA:129,45
DA:130,0
DA:131,0
DA:132,0
DA:134,45
DA:135,535
DA:136,490
DA:137,490
DA:138,490
DA:139,490
DA:140,490
DA:141,490
DA:142,490
DA:143,192
DA:144,298
DA:145,216
DA:148,45
DA:152,22
DA:153,23
DA:154,0
DA:155,0
DA:160,23
DA:162,45
DA:163,45
DA:187,26
DA:189,26
DA:190,317
DA:191,291
DA:193,26
DA:194,0
DA:195,26
DA:196,11
DA:198,26
LF:62
LH:54
end_of_record
TN:
SF:/home/runner/work/vectorfontstorm/vectorfontstorm/vectorfontstorm/font.h
FN:103,110,_ZN15vectorfontstorm4fontI10TestVertexED2Ev
FN:113,123,_ZN15vectorfontstorm4fontI10TestVertexE4swapERS2_
FN:133,135,_ZNK15vectorfontstorm4fontI10TestVertexE10get_heightEv
FN:138,145,_ZN15vectorfontstorm4fontI10TestVertexE11get_outlineEDiRNS_11buffer_dataIS1_EE
FN:147,154,_ZN15vectorfontstorm4fontI10TestVertexE8get_fillEDiRNS_11buffer_dataIS1_EE
FN:156,163,_ZN15vectorfontstorm4fontI10TestVertexE8get_backEDiRNS_11buffer_dataIS1_EE
FN:165,172,_ZN15vectorfontstorm4fontI10TestVertexE8get_edgeEDiRNS_11buffer_dataIS1_EE
FN:174,185,_ZN15vectorfontstorm4fontI10TestVertexE20get_outline_and_fillEDiRNS_11buffer_dataIS1_EES5_S5_
FN:187,200,_ZN15vectorfontstorm4fontI10TestVertexE30get_outline_and_fill_and_edgesEDiRNS_11buffer_dataIS1_EES5_S5_S5_
FN:203,361,_ZN15vectorfontstorm4fontI10TestVertexE24load_glyph_from_freetypeEDiRNSt8__detail14_Node_iteratorISt4pairIKDiNS_5glyphIS1_EEELb0ELb0EEE
FN:51,100,_ZN15vectorfontstorm4fontI10TestVertexEC2EPKhmd
FNDA:19,_ZN15vectorfontstorm4fontI10TestVertexED2Ev
FNDA:1,_ZN15vectorfontstorm4fontI10TestVertexE4swapERS2_
FNDA:6,_ZNK15vectorfontstorm4fontI10TestVertexE10get_heightEv
FNDA:10,_ZN15vectorfontstorm4fontI10TestVertexE11get_outlineEDiRNS_11buffer_dataIS1_EE
FNDA:15,_ZN15vectorfontstorm4fontI10TestVertexE8get_fillEDiRNS_11buffer_dataIS1_EE
FNDA:2,_ZN15vectorfontstorm4fontI10TestVertexE8get_backEDiRNS_11buffer_dataIS1_EE
FNDA:1,_ZN15vectorfontstorm4fontI10TestVertexE8get_edgeEDiRNS_11buffer_dataIS1_EE
FNDA:1,_ZN15vectorfontstorm4fontI10TestVertexE20get_outline_and_fillEDiRNS_11buffer_dataIS1_EES5_S5_
FNDA:1,_ZN15vectorfontstorm4fontI10TestVertexE30get_outline_and_fill_and_edgesEDiRNS_11buffer_dataIS1_EES5_S5_S5_
FNDA:27,_ZN15vectorfontstorm4fontI10TestVertexE24load_glyph_from_freetypeEDiRNSt8__detail14_Node_iteratorISt4pairIKDiNS_5glyphIS1_EEELb0ELb0EEE
FNDA:19,_ZN15vectorfontstorm4fontI10TestVertexEC2EPKhmd
FNF:11
FNH:11
DA:51,19
DA:54,19
DA:56,19
DA:57,19
DA:58,19
DA:59,19
DA:60,19
DA:61,19
DA:62,19
DA:63,19
DA:64,19
DA:66,19
DA:69,19
DA:100,19
DA:103,19
DA:108,19
DA:109,19
DA:110,19
DA:113,1
DA:118,1
DA:119,1
DA:120,1
DA:121,1
DA:122,1
DA:123,1
DA:133,6
DA:134,6
DA:138,10
DA:141,10
DA:142,10
DA:143,10
DA:144,20
DA:147,15
DA:150,15
DA:151,15
DA:152,15
DA:153,30
DA:156,2
DA:159,2
DA:160,2
DA:161,2
DA:162,4
DA:165,1
DA:168,1
DA:169,1
DA:170,1
DA:171,2
DA:174,1
DA:179,1
DA:180,1
DA:181,1
DA:182,1
DA:183,1
DA:184,2
DA:187,1
DA:193,1
DA:194,1
DA:195,1
DA:196,1
DA:197,1
DA:198,1
DA:199,2
DA:203,27
DA:205,27
DA:209,27
DA:210,27
DA:211,27
DA:212,27
DA:213,27
DA:214,27
DA:219,27
DA:220,27
DA:221,72
DA:222,45
DA:223,45
DA:224,45
DA:225,45
DA:229,1025
DA:230,490
DA:231,490
DA:232,490
DA:236,490
DA:237,322
DA:238,322
DA:241,277
DA:242,277
DA:243,277
DA:244,277
DA:248,277
DA:249,0
DA:250,0
DA:254,0
DA:255,0
DA:256,0
DA:260,0
DA:261,0
DA:263,0
DA:265,0
DA:266,0
DA:268,0
DA:270,0
DA:272,277
DA:273,277
DA:275,322
DA:276,168
DA:277,168
DA:280,0
DA:282,168
DA:283,168
DA:284,0
DA:288,0
DA:289,168
DA:292,168
DA:293,168
DA:294,168
DA:295,168
DA:296,168
DA:297,168
DA:298,168
DA:299,168
DA:304,168
DA:305,0
DA:306,0
DA:307,0
DA:308,0
DA:310,0
DA:312,0
DA:315,168
DA:316,0
DA:320,0
DA:321,0
DA:322,0
DA:323,0
DA:324,0
DA:328,45
DA:329,45
DA:330,45
DA:331,45
DA:332,45
DA:333,45
DA:334,45
DA:335,45
DA:336,45
DA:337,45
DA:338,45
DA:339,0
DA:340,0
DA:341,0
DA:342,0
DA:344,0
DA:345,0
DA:346,0
DA:348,0
DA:349,0
DA:350,0
DA:351,0
DA:352,0
DA:353,0
DA:355,0
DA:357,45
DA:359,27
DA:360,27
LF:162
LH:121
end_of_record
TN:
SF:/home/runner/work/vectorfontstorm/vectorfontstorm/vectorfontstorm/glyph.h
FN:107,180,_ZN15vectorfontstorm5glyphI10TestVertexE12cache_bufferEv
FN:183,185,_ZNK15vectorfontstorm5glyphI10TestVertexE11get_advanceEv
FN:188,211,_ZN15vectorfontstorm5glyphI10TestVertexE10get_bufferERKNS_11buffer_dataIS1_EERS4_
FN:214,217,_ZN15vectorfontstorm5glyphI10TestVertexE11get_outlineERNS_11buffer_dataIS1_EE
FN:220,223,_ZN15vectorfontstorm5glyphI10TestVertexE8get_fillERNS_11buffer_dataIS1_EE
FN:225,228,_ZN15vectorfontstorm5glyphI10TestVertexE8get_backERNS_11buffer_dataIS1_EE
FN:230,233,_ZN15vectorfontstorm5glyphI10TestVertexE8get_edgeERNS_11buffer_dataIS1_EE
FN:52,56,_ZN15vectorfontstorm5glyphI10TestVertexEC2EDif
FN:59,61,_ZN15vectorfontstorm5glyphI10TestVertexED2Ev
FN:64,104,_ZN15vectorfontstorm5glyphI10TestVertexE15correct_windingEv
FNDA:27,_ZN15vectorfontstorm5glyphI10TestVertexE12cache_bufferEv
FNDA:32,_ZNK15vectorfontstorm5glyphI10TestVertexE11get_advanceEv
FNDA:41,_ZN15vectorfontstorm5glyphI10TestVertexE10get_bufferERKNS_11buffer_dataIS1_EERS4_
FNDA:13,_ZN15vectorfontstorm5glyphI10TestVertexE11get_outlineERNS_11buffer_dataIS1_EE
FNDA:19,_ZN15vectorfontstorm5glyphI10TestVertexE8get_fillERNS_11buffer_dataIS1_EE
FNDA:5,_ZN15vectorfontstorm5glyphI10TestVertexE8get_backERNS_11buffer_dataIS1_EE
FNDA:3,_ZN15vectorfontstorm5glyphI10TestVertexE8get_edgeERNS_11buffer_dataIS1_EE
FNDA:32,_ZN15vectorfontstorm5glyphI10TestVertexEC2EDif
FNDA:59,_ZN15vectorfontstorm5glyphI10TestVertexED2Ev
FNDA:28,_ZN15vectorfontstorm5glyphI10TestVertexE15correct_windingEv
FNF:10
FNH:10
DA:52,32
DA:53,32
DA:54,32
DA:56,32
DA:59,59
DA:61,59
DA:64,28
DA:67,28
DA:68,0
DA:70,28
DA:71,2
DA:72,2
DA:98,26
DA:99,26
DA:100,37
DA:101,26
DA:107,27
DA:116,72
DA:117,45
DA:118,45
DA:120,27
DA:122,1
DA:123,1
DA:127,26
DA:128,94
DA:129,34
DA:130,34
DA:135,34
DA:139,34
DA:140,75
DA:141,19
DA:142,11
DA:143,11
DA:147,11
DA:148,11
DA:150,34
DA:151,34
DA:157,478
DA:160,444
DA:161,444
DA:162,444
DA:163,444
DA:164,444
DA:165,444
DA:166,444
DA:170,444
DA:171,444
DA:172,444
DA:173,444
DA:174,444
DA:175,444
DA:176,444
DA:183,32
DA:184,32
DA:188,41
DA:190,41
DA:191,6
DA:193,35
DA:194,26
DA:195,26
DA:196,0
DA:200,35
DA:201,35
DA:202,35
DA:203,35
DA:205,35
DA:206,35
DA:208,1663
DA:209,1628
DA:214,13
DA:216,13
DA:217,13
DA:220,19
DA:222,19
DA:223,19
DA:225,5
DA:227,5
DA:228,5
DA:230,3
DA:232,3
DA:233,3
LF:81
LH:79
end_of_record
TN:
SF:/home/runner/work/vectorfontstorm/vectorfontstorm/vectorfontstorm/point.cpp
FN:11,15,_ZN15vectorfontstorm5pointC2ERK7vector2IfENS0_5typesE
FN:17,19,_ZN15vectorfontstorm5pointD2Ev
FN:5,9,_ZN15vectorfontstorm5pointC2EffNS0_5typesE
FNDA:3360,_ZN15vectorfontstorm5pointC2ERK7vector2IfENS0_5typesE
FNDA:15308,_ZN15vectorfontstorm5pointD2Ev
FNDA:1070,_ZN15vectorfontstorm5pointC2EffNS0_5typesE
FNF:3
FNH:3
DA:5,1070
DA:6,1070
DA:7,1070
DA:9,1070
DA:11,3360
DA:12,3360
DA:13,3360
DA:15,3360
DA:17,15308
DA:19,15308
LF:10
LH:10
end_of_record
TN:
SF:/home/runner/work/vectorfontstorm/vectorfontstorm/vectorfontstorm/poly2tri/common/shapes.cc
FN:105,109,_ZN3p2t8Triangle14ClearNeighborsEv
FN:111,113,_ZN3p2t8Triangle17ClearDelunayEdgesEv
FN:115,118,_ZN3p2t8Triangle13OppositePointERS0_RKNS_5PointE
FN:121,125,_ZN3p2t8Triangle8LegalizeERNS_5PointE
FN:128,144,_ZN3p2t8Triangle8LegalizeERNS_5PointES2_
FN:146,156,_ZN3p2t8Triangle5IndexEPKNS_5PointE
FN:158,179,_ZN3p2t8Triangle9EdgeIndexEPKNS_5PointES3_
FN:181,183,_ZN3p2t8Triangle19MarkConstrainedEdgeEi
FN:185,187,_ZN3p2t8Triangle19MarkConstrainedEdgeERNS_4EdgeE
FN:190,198,_ZN3p2t8Triangle19MarkConstrainedEdgeEPNS_5PointES2_
FN:201,211,_ZN3p2t8Triangle7PointCWERKNS_5PointE
FN:214,224,_ZN3p2t8Triangle8PointCCWERKNS_5PointE
FN:227,234,_ZN3p2t8Triangle10NeighborCWERKNS_5PointE
FN:237,244,_ZN3p2t8Triangle11NeighborCCWERKNS_5PointE
FN:246,253,_ZN3p2t8Triangle21GetConstrainedEdgeCCWERKNS_5PointE
FN:255,262,_ZN3p2t8Triangle20GetConstrainedEdgeCWERKNS_5PointE
FN:264,272,_ZN3p2t8Triangle21SetConstrainedEdgeCCWERKNS_5PointEb
FN:274,282,_ZN3p2t8Triangle20SetConstrainedEdgeCWERKNS_5PointEb
FN:284,291,_ZN3p2t8Triangle17GetDelunayEdgeCCWERKNS_5PointE
FN:293,300,_ZN3p2t8Triangle16GetDelunayEdgeCWERKNS_5PointE
FN:302,310,_ZN3p2t8Triangle17SetDelunayEdgeCCWERKNS_5PointEb
FN:312,320,_ZN3p2t8Triangle16SetDelunayEdgeCWERKNS_5PointEb
FN:323,330,_ZN3p2t8Triangle14NeighborAcrossERKNS_5PointE
FN:332,336,_ZN3p2t8Triangle10DebugPrintEv
FN:36,50,_ZN3p2t8TriangleC2ERNS_5PointES2_S2_
FN:53,63,_ZN3p2t8Triangle12MarkNeighborEPNS_5PointES2_PS0_
FN:66,77,_ZN3p2t8Triangle12MarkNeighborERS0_
FN:82,93,_ZN3p2t8Triangle5ClearEv
FN:95,103,_ZN3p2t8Triangle13ClearNeighborEPKS0_
FNDA:940,_ZN3p2t8Triangle14ClearNeighborsEv
FNDA:0,_ZN3p2t8Triangle17ClearDelunayEdgesEv
FNDA:3190,_ZN3p2t8Triangle13OppositePointERS0_RKNS_5PointE
FNDA:0,_ZN3p2t8Triangle8LegalizeERNS_5PointE
FNDA:940,_ZN3p2t8Triangle8LegalizeERNS_5PointES2_
FNDA:3166,_ZN3p2t8Triangle5IndexEPKNS_5PointE
FNDA:1878,_ZN3p2t8Triangle9EdgeIndexEPKNS_5PointES3_
FNDA:956,_ZN3p2t8Triangle19MarkConstrainedEdgeEi
FNDA:0,_ZN3p2t8Triangle19MarkConstrainedEdgeERNS_4EdgeE
FNDA:380,_ZN3p2t8Triangle19MarkConstrainedEdgeEPNS_5PointES2_
FNDA:11954,_ZN3p2t8Triangle7PointCWERKNS_5PointE
FNDA:2866,_ZN3p2t8Triangle8PointCCWERKNS_5PointE
FNDA:940,_ZN3p2t8Triangle10NeighborCWERKNS_5PointE
FNDA:1450,_ZN3p2t8Triangle11NeighborCCWERKNS_5PointE
FNDA:940,_ZN3p2t8Triangle21GetConstrainedEdgeCCWERKNS_5PointE
FNDA:1024,_ZN3p2t8Triangle20GetConstrainedEdgeCWERKNS_5PointE
FNDA:940,_ZN3p2t8Triangle21SetConstrainedEdgeCCWERKNS_5PointEb
FNDA:940,_ZN3p2t8Triangle20SetConstrainedEdgeCWERKNS_5PointEb
FNDA:940,_ZN3p2t8Triangle17GetDelunayEdgeCCWERKNS_5PointE
FNDA:940,_ZN3p2t8Triangle16GetDelunayEdgeCWERKNS_5PointE
FNDA:940,_ZN3p2t8Triangle17SetDelunayEdgeCCWERKNS_5PointEb
FNDA:940,_ZN3p2t8Triangle16SetDelunayEdgeCWERKNS_5PointEb
FNDA:24,_ZN3p2t8Triangle14NeighborAcrossERKNS_5PointE
FNDA:0,_ZN3p2t8Triangle10DebugPrintEv
FNDA:1658,_ZN3p2t8TriangleC2ERNS_5PointES2_S2_
FNDA:3816,_ZN3p2t8Triangle12MarkNeighborEPNS_5PointES2_PS0_
FNDA:3816,_ZN3p2t8Triangle12MarkNeighborERS0_
FNDA:0,_ZN3p2t8Triangle5ClearEv
FNDA:0,_ZN3p2t8Triangle13ClearNeighborEPKS0_
FNF:29
FNH:23
DA:36,1658
DA:37,1658
DA:38,1658
DA:39,1658
DA:40,1658
DA:41,1658
DA:42,1658
DA:43,1658
DA:44,1658
DA:45,1658
DA:46,1658
DA:47,1658
DA:48,1658
DA:49,1658
DA:50,1658
DA:53,3816
DA:54,3816
DA:55,374
DA:56,3442
DA:57,1798
DA:58,1644
DA:59,1644
DA:61,0
DA:63,3816
DA:66,3816
DA:67,3816
DA:68,2344
DA:69,2344
DA:70,1472
DA:71,498
DA:72,498
DA:73,974
DA:74,974
DA:75,974
DA:77,3816
DA:82,0
DA:83,0
DA:84,0
DA:85,0
DA:86,0
DA:89,0
DA:90,0
DA:91,0
DA:92,0
DA:93,0
DA:95,0
DA:96,0
DA:97,0
DA:98,0
DA:99,0
DA:101,0
DA:103,0
DA:105,940
DA:106,940
DA:107,940
DA:108,940
DA:109,940
DA:111,0
DA:112,0
DA:113,0
DA:115,3190
DA:116,3190
DA:117,3190
DA:121,0
DA:122,0
DA:123,0
DA:124,0
DA:125,0
DA:128,940
DA:129,940
DA:130,378
DA:131,378
DA:132,378
DA:133,562
DA:134,380
DA:135,380
DA:136,380
DA:137,182
DA:138,182
DA:139,182
DA:140,182
DA:142,0
DA:144,940
DA:146,3166
DA:147,3166
DA:148,322
DA:149,2844
DA:150,1338
DA:151,1506
DA:152,1506
DA:154,0
DA:158,1878
DA:159,1878
DA:160,194
DA:161,60
DA:162,134
DA:163,134
DA:165,1684
DA:166,624
DA:167,2
DA:168,622
DA:169,622
DA:171,1060
DA:172,138
DA:173,74
DA:174,64
DA:175,64
DA:178,922
DA:181,956
DA:182,956
DA:183,956
DA:185,0
DA:186,0
DA:187,0
DA:190,380
DA:191,380
DA:192,28
DA:193,352
DA:194,56
DA:195,296
DA:196,296
DA:198,380
DA:201,11954
DA:202,11954
DA:203,5478
DA:204,6476
DA:205,2594
DA:206,3882
DA:207,3882
DA:209,0
DA:214,2866
DA:215,2866
DA:216,1772
DA:217,1094
DA:218,490
DA:219,604
DA:220,604
DA:222,0
DA:227,940
DA:228,940
DA:229,378
DA:230,562
DA:231,380
DA:233,182
DA:237,1450
DA:238,1450
DA:239,600
DA:240,850
DA:241,634
DA:243,216
DA:246,940
DA:247,940
DA:248,378
DA:249,562
DA:250,380
DA:252,182
DA:255,1024
DA:256,1024
DA:257,424
DA:258,600
DA:259,400
DA:261,200
DA:264,940
DA:265,940
DA:266,380
DA:267,560
DA:268,182
DA:270,378
DA:272,940
DA:274,940
DA:275,940
DA:276,182
DA:277,758
DA:278,378
DA:280,380
DA:282,940
DA:284,940
DA:285,940
DA:286,378
DA:287,562
DA:288,380
DA:290,182
DA:293,940
DA:294,940
DA:295,378
DA:296,562
DA:297,380
DA:299,182
DA:302,940
DA:303,940
DA:304,380
DA:305,560
DA:306,182
DA:308,378
DA:310,940
DA:312,940
DA:313,940
DA:314,182
DA:315,758
DA:316,378
DA:318,380
DA:320,940
DA:323,24
DA:324,24
DA:325,18
DA:326,6
DA:327,4
DA:329,2
DA:332,0
DA:333,0
DA:334,0
DA:335,0
DA:336,0
LF:213
LH:175
end_of_record
TN:
SF:/home/runner/work/vectorfontstorm/vectorfontstorm/vectorfontstorm/poly2tri/common/shapes.h
FN:121,139,_ZN3p2t4EdgeC2ERNS_5PointES2_
FN:212,222,_ZN3p2t3cmpESt10shared_ptrINS_5PointEES2_
FN:239,241,_ZN3p2teqERKNS_5PointES2_
FN:269,271,_ZN3p2t8Triangle8GetPointEi
FN:273,275,_ZN3p2t8Triangle11GetNeighborEi
FN:277,279,_ZN3p2t8Triangle8ContainsEPKNS_5PointE
FN:285,287,_ZN3p2t8Triangle8ContainsEPKNS_5PointES3_
FN:289,291,_ZN3p2t8Triangle10IsInteriorEv
FN:293,295,_ZN3p2t8Triangle10IsInteriorEb
FN:61,61,_ZN3p2t5PointC2Eff
FNDA:980,_ZN3p2t4EdgeC2ERNS_5PointES2_
FNDA:3856,_ZN3p2t3cmpESt10shared_ptrINS_5PointEES2_
FNDA:138,_ZN3p2teqERKNS_5PointES2_
FNDA:6078,_ZN3p2t8Triangle8GetPointEi
FNDA:14812,_ZN3p2t8Triangle11GetNeighborEi
FNDA:12026,_ZN3p2t8Triangle8ContainsEPKNS_5PointE
FNDA:6262,_ZN3p2t8Triangle8ContainsEPKNS_5PointES3_
FNDA:1752,_ZN3p2t8Triangle10IsInteriorEv
FNDA:888,_ZN3p2t8Triangle10IsInteriorEb
FNDA:1138,_ZN3p2t5PointC2Eff
FNF:10
FNH:10
DA:61,1138
DA:121,980
DA:122,980
DA:123,980
DA:124,980
DA:125,310
DA:126,310
DA:127,670
DA:128,362
DA:129,172
DA:130,172
DA:131,190
DA:133,0
DA:134,0
DA:138,980
DA:139,980
DA:212,3856
DA:213,3856
DA:214,2070
DA:215,1786
DA:217,772
DA:218,332
DA:221,1454
DA:239,138
DA:240,138
DA:269,6078
DA:270,6078
DA:273,14812
DA:274,14812
DA:277,12026
DA:278,12026
DA:285,6262
DA:286,6262
DA:289,1752
DA:290,1752
DA:293,888
DA:294,888
DA:295,888
LF:38
LH:36
end_of_record
TN:
SF:/home/runner/work/vectorfontstorm/vectorfontstorm/vectorfontstorm/poly2tri/common/utils.h
FN:111,122,_ZN3p2t10InScanAreaERKNS_5PointES2_S2_S2_
FN:67,77,_ZN3p2t8Orient2dERKNS_5PointES2_S2_
FNDA:24,_ZN3p2t10InScanAreaERKNS_5PointES2_S2_S2_
FNDA:1534,_ZN3p2t8Orient2dERKNS_5PointES2_S2_
FNF:2
FNH:2
DA:67,1534
DA:68,1534
DA:69,1534
DA:70,1534
DA:71,1534
DA:72,4
DA:73,1530
DA:74,268
DA:76,1262
DA:111,24
DA:112,24
DA:113,24
DA:114,0
DA:117,24
DA:118,24
DA:119,0
DA:121,24
LF:17
LH:15
end_of_record
TN:
SF:/home/runner/work/vectorfontstorm/vectorfontstorm/vectorfontstorm/poly2tri/sweep/advancing_front.cc
FN:102,103,_ZN3p2t14AdvancingFrontD2Ev
FN:35,39,_ZN3p2t14AdvancingFrontC2ERNS_4NodeES2_
FN:41,60,_ZN3p2t14AdvancingFront10LocateNodeEf
FN:62,65,_ZN3p2t14AdvancingFront14FindSearchNodeEv
FN:67,100,_ZN3p2t14AdvancingFront11LocatePointEPKNS_5PointE
FNDA:68,_ZN3p2t14AdvancingFrontD2Ev
FNDA:68,_ZN3p2t14AdvancingFrontC2ERNS_4NodeES2_
FNDA:912,_ZN3p2t14AdvancingFront10LocateNodeEf
FNDA:2708,_ZN3p2t14AdvancingFront14FindSearchNodeEv
FNDA:2708,_ZN3p2t14AdvancingFront11LocatePointEPKNS_5PointE
FNF:5
FNH:5
DA:35,68
DA:36,68
DA:37,68
DA:38,68
DA:39,68
DA:41,912
DA:42,912
DA:44,912
DA:45,580
DA:46,580
DA:47,220
DA:48,220
DA:52,1894
DA:53,1894
DA:54,692
DA:55,692
DA:59,0
DA:62,2708
DA:64,2708
DA:67,2708
DA:68,2708
DA:69,2708
DA:70,2708
DA:72,2708
DA:73,760
DA:75,698
DA:76,342
DA:77,356
DA:78,356
DA:80,0
DA:83,1948
DA:84,1250
DA:85,1250
DA:86,1176
DA:90,856
DA:91,856
DA:92,772
DA:96,2708
DA:97,2708
DA:99,2708
DA:102,68
DA:103,68
LF:42
LH:40
end_of_record
TN:
SF:/home/runner/work/vectorfontstorm/vectorfontstorm/vectorfontstorm/poly2tri/sweep/advancing_front.h
FN:51,57,_ZN3p2t4NodeC2ERNS_5PointE
FN:59,65,_ZN3p2t4NodeC2ERNS_5PointERNS_8TriangleE
FN:94,96,_ZN3p2t14AdvancingFront4headEv
FNDA:980,_ZN3p2t4NodeC2ERNS_5PointE
FNDA:136,_ZN3p2t4NodeC2ERNS_5PointERNS_8TriangleE
FNDA:136,_ZN3p2t14AdvancingFront4headEv
FNF:3
FNH:3
DA:51,980
DA:52,980
DA:53,980
DA:54,980
DA:55,980
DA:56,980
DA:57,980
DA:59,136
DA:60,136
DA:61,136
DA:62,136
DA:63,136
DA:64,136
DA:65,136
DA:94,136
DA:95,136
LF:16
LH:16
end_of_record
TN:
SF:/home/runner/work/vectorfontstorm/vectorfontstorm/vectorfontstorm/poly2tri/sweep/sweep.cc
FN:102,154,_ZN3p2t5Sweep9EdgeEventERNS_12SweepContextERNS_5PointES4_PNS_8TriangleES4_
FN:156,168,_ZN3p2t5Sweep20IsEdgeSideOfTriangleERNS_8TriangleERNS_5PointES4_
FN:170,189,_ZN3p2t5Sweep16NewFrontTriangleERNS_12SweepContextERNS_5PointERNS_4NodeE
FN:191,210,_ZN3p2t5Sweep4FillERNS_12SweepContextERNS_4NodeE
FN:212,245,_ZN3p2t5Sweep18FillAdvancingFrontERNS_12SweepContextERNS_4NodeE
FN:248,270,_ZNK3p2t5Sweep18LargeHole_DontFillEPKNS_4NodeE
FN:272,275,_ZNK3p2t5Sweep21AngleExceeds90DegreesEPKNS_5PointES3_S3_
FN:277,280,_ZNK3p2t5Sweep37AngleExceedsPlus90DegreesOrIsNegativeEPKNS_5PointES3_S3_
FN:282,300,_ZNK3p2t5Sweep5AngleEPKNS_5PointES3_S3_
FN:302,306,_ZNK3p2t5Sweep10BasinAngleERKNS_4NodeE
FN:308,322,_ZNK3p2t5Sweep9HoleAngleERKNS_4NodeE
FN:324,384,_ZN3p2t5Sweep8LegalizeERNS_12SweepContextERNS_8TriangleE
FN:386,421,_ZNK3p2t5Sweep8IncircleERKNS_5PointES3_S3_S3_
FN:40,47,_ZN3p2t5Sweep11TriangulateERNS_12SweepContextE
FN:423,477,_ZNK3p2t5Sweep18RotateTrianglePairERNS_8TriangleERNS_5PointES2_S4_
FN:479,511,_ZN3p2t5Sweep9FillBasinERNS_12SweepContextERNS_4NodeE
FN:49,57,_ZN3p2t5Sweep11SweepPointsERNS_12SweepContextE
FN:513,545,_ZN3p2t5Sweep12FillBasinReqERNS_12SweepContextEPNS_4NodeE
FN:547,561,_ZN3p2t5Sweep9IsShallowERNS_12SweepContextERNS_4NodeE
FN:563,569,_ZN3p2t5Sweep13FillEdgeEventERNS_12SweepContextEPNS_4EdgeEPNS_4NodeE
FN:571,580,_ZN3p2t5Sweep23FillRightAboveEdgeEventERNS_12SweepContextEPNS_4EdgeEPNS_4NodeE
FN:582,594,_ZN3p2t5Sweep23FillRightBelowEdgeEventERNS_12SweepContextEPNS_4EdgeERNS_4NodeE
FN:59,69,_ZN3p2t5Sweep19FinalizationPolygonERNS_12SweepContextE
FN:596,611,_ZN3p2t5Sweep25FillRightConcaveEdgeEventERNS_12SweepContextEPNS_4EdgeERNS_4NodeE
FN:613,628,_ZN3p2t5Sweep24FillRightConvexEdgeEventERNS_12SweepContextEPNS_4EdgeERNS_4NodeE
FN:630,639,_ZN3p2t5Sweep22FillLeftAboveEdgeEventERNS_12SweepContextEPNS_4EdgeEPNS_4NodeE
FN:641,653,_ZN3p2t5Sweep22FillLeftBelowEdgeEventERNS_12SweepContextEPNS_4EdgeERNS_4NodeE
FN:655,670,_ZN3p2t5Sweep23FillLeftConvexEdgeEventERNS_12SweepContextEPNS_4EdgeERNS_4NodeE
FN:672,687,_ZN3p2t5Sweep24FillLeftConcaveEdgeEventERNS_12SweepContextEPNS_4EdgeERNS_4NodeE
FN:689,718,_ZN3p2t5Sweep13FlipEdgeEventERNS_12SweepContextERNS_5PointES4_PNS_8TriangleES4_
FN:71,85,_ZN3p2t5Sweep10PointEventERNS_12SweepContextERNS_5PointE
FN:720,737,_ZN3p2t5Sweep16NextFlipTriangleERNS_12SweepContextEiRNS_8TriangleES4_RNS_5PointES6_
FN:739,749,_ZN3p2t5Sweep13NextFlipPointERNS_5PointES2_RNS_8TriangleES2_
FN:751,770,_ZN3p2t5Sweep17FlipScanEdgeEventERNS_12SweepContextERNS_5PointES4_RNS_8TriangleES6_S4_
FN:772,779,_ZN3p2t5SweepD2Ev
FN:87,100,_ZN3p2t5Sweep9EdgeEventERNS_12SweepContextEPNS_4EdgeEPNS_4NodeE
FNDA:898,_ZN3p2t5Sweep9EdgeEventERNS_12SweepContextERNS_5PointES4_PNS_8TriangleES4_
FNDA:1878,_ZN3p2t5Sweep20IsEdgeSideOfTriangleERNS_8TriangleERNS_5PointES4_
FNDA:912,_ZN3p2t5Sweep16NewFrontTriangleERNS_12SweepContextERNS_5PointERNS_4NodeE
FNDA:678,_ZN3p2t5Sweep4FillERNS_12SweepContextERNS_4NodeE
FNDA:912,_ZN3p2t5Sweep18FillAdvancingFrontERNS_12SweepContextERNS_4NodeE
FNDA:1726,_ZNK3p2t5Sweep18LargeHole_DontFillEPKNS_4NodeE
FNDA:1726,_ZNK3p2t5Sweep21AngleExceeds90DegreesEPKNS_5PointES3_S3_
FNDA:2558,_ZNK3p2t5Sweep37AngleExceedsPlus90DegreesOrIsNegativeEPKNS_5PointES3_S3_
FNDA:4284,_ZNK3p2t5Sweep5AngleEPKNS_5PointES3_S3_
FNDA:654,_ZNK3p2t5Sweep10BasinAngleERKNS_4NodeE
FNDA:0,_ZNK3p2t5Sweep9HoleAngleERKNS_4NodeE
FNDA:2530,_ZN3p2t5Sweep8LegalizeERNS_12SweepContextERNS_8TriangleE
FNDA:2324,_ZNK3p2t5Sweep8IncircleERKNS_5PointES3_S3_S3_
FNDA:68,_ZN3p2t5Sweep11TriangulateERNS_12SweepContextE
FNDA:470,_ZNK3p2t5Sweep18RotateTrianglePairERNS_8TriangleERNS_5PointES2_S4_
FNDA:340,_ZN3p2t5Sweep9FillBasinERNS_12SweepContextERNS_4NodeE
FNDA:68,_ZN3p2t5Sweep11SweepPointsERNS_12SweepContextE
FNDA:50,_ZN3p2t5Sweep12FillBasinReqERNS_12SweepContextEPNS_4NodeE
FNDA:50,_ZN3p2t5Sweep9IsShallowERNS_12SweepContextERNS_4NodeE
FNDA:404,_ZN3p2t5Sweep13FillEdgeEventERNS_12SweepContextEPNS_4EdgeEPNS_4NodeE
FNDA:20,_ZN3p2t5Sweep23FillRightAboveEdgeEventERNS_12SweepContextEPNS_4EdgeEPNS_4NodeE
FNDA:10,_ZN3p2t5Sweep23FillRightBelowEdgeEventERNS_12SweepContextEPNS_4EdgeERNS_4NodeE
FNDA:68,_ZN3p2t5Sweep19FinalizationPolygonERNS_12SweepContextE
FNDA:30,_ZN3p2t5Sweep25FillRightConcaveEdgeEventERNS_12SweepContextEPNS_4EdgeERNS_4NodeE
FNDA:0,_ZN3p2t5Sweep24FillRightConvexEdgeEventERNS_12SweepContextEPNS_4EdgeERNS_4NodeE
FNDA:384,_ZN3p2t5Sweep22FillLeftAboveEdgeEventERNS_12SweepContextEPNS_4EdgeEPNS_4NodeE
FNDA:26,_ZN3p2t5Sweep22FillLeftBelowEdgeEventERNS_12SweepContextEPNS_4EdgeERNS_4NodeE
FNDA:0,_ZN3p2t5Sweep23FillLeftConvexEdgeEventERNS_12SweepContextEPNS_4EdgeERNS_4NodeE
FNDA:46,_ZN3p2t5Sweep24FillLeftConcaveEdgeEventERNS_12SweepContextEPNS_4EdgeERNS_4NodeE
FNDA:24,_ZN3p2t5Sweep13FlipEdgeEventERNS_12SweepContextERNS_5PointES4_PNS_8TriangleES4_
FNDA:912,_ZN3p2t5Sweep10PointEventERNS_12SweepContextERNS_5PointE
FNDA:0,_ZN3p2t5Sweep16NextFlipTriangleERNS_12SweepContextEiRNS_8TriangleES4_RNS_5PointES6_
FNDA:0,_ZN3p2t5Sweep13NextFlipPointERNS_5PointES2_RNS_8TriangleES2_
FNDA:0,_ZN3p2t5Sweep17FlipScanEdgeEventERNS_12SweepContextERNS_5PointES4_RNS_8TriangleES6_S4_
FNDA:68,_ZN3p2t5SweepD2Ev
FNDA:980,_ZN3p2t5Sweep9EdgeEventERNS_12SweepContextEPNS_4EdgeEPNS_4NodeE
FNF:36
FNH:30
DA:40,68
DA:41,68
DA:42,68
DA:44,68
DA:46,68
DA:47,68
DA:49,68
DA:50,980
DA:51,912
DA:52,912
DA:53,1892
DA:54,980
DA:57,68
DA:59,68
DA:61,68
DA:62,68
DA:63,84
DA:64,16
DA:68,68
DA:69,68
DA:71,912
DA:72,912
DA:73,912
DA:77,912
DA:78,342
DA:83,912
DA:84,912
DA:87,980
DA:88,980
DA:89,980
DA:91,980
DA:92,576
DA:98,404
DA:99,404
DA:102,898
DA:103,898
DA:104,380
DA:107,518
DA:108,518
DA:109,518
DA:110,0
DA:111,0
DA:114,0
DA:115,0
DA:116,0
DA:118,0
DA:119,0
DA:121,0
DA:124,518
DA:125,518
DA:126,518
DA:127,0
DA:128,0
DA:131,0
DA:132,0
DA:133,0
DA:135,0
DA:136,0
DA:138,0
DA:141,518
DA:144,494
DA:145,494
DA:147,0
DA:149,494
DA:152,24
DA:156,1878
DA:157,1878
DA:159,1878
DA:160,956
DA:161,956
DA:162,956
DA:163,332
DA:165,956
DA:167,922
DA:170,912
DA:171,912
DA:173,912
DA:174,912
DA:176,912
DA:177,912
DA:179,912
DA:180,912
DA:181,912
DA:182,912
DA:184,912
DA:185,698
DA:188,912
DA:191,678
DA:192,678
DA:196,678
DA:197,678
DA:199,678
DA:202,678
DA:203,678
DA:206,678
DA:207,552
DA:210,678
DA:212,912
DA:215,912
DA:217,1030
DA:219,772
DA:220,654
DA:222,118
DA:223,118
DA:227,912
DA:229,1046
DA:231,954
DA:232,820
DA:234,134
DA:235,134
DA:239,912
DA:240,654
DA:241,654
DA:242,340
DA:245,912
DA:248,1726
DA:250,1726
DA:251,1726
DA:252,1726
DA:253,214
DA:257,1512
DA:259,1512
DA:260,26
DA:263,1486
DA:265,1486
DA:266,12
DA:269,1474
DA:272,1726
DA:273,1726
DA:274,1726
DA:277,2558
DA:278,2558
DA:279,2558
DA:282,4284
DA:291,4284
DA:292,4284
DA:293,4284
DA:294,4284
DA:295,4284
DA:296,4284
DA:297,4284
DA:298,4284
DA:299,4284
DA:302,654
DA:303,654
DA:304,654
DA:305,654
DA:308,0
DA:317,0
DA:318,0
DA:319,0
DA:320,0
DA:321,0
DA:324,2530
DA:327,8952
DA:328,6868
DA:329,948
DA:332,5920
DA:334,5920
DA:335,3166
DA:336,3166
DA:337,3166
DA:341,3166
DA:342,842
DA:343,842
DA:346,2324
DA:348,2324
DA:350,446
DA:351,446
DA:354,446
DA:360,446
DA:361,446
DA:362,406
DA:365,446
DA:366,446
DA:367,380
DA:374,446
DA:375,446
DA:379,446
DA:383,2084
DA:386,2324
DA:387,2324
DA:388,2324
DA:389,2324
DA:390,2324
DA:392,2324
DA:393,2324
DA:394,2324
DA:396,2324
DA:397,674
DA:400,1650
DA:401,1650
DA:403,1650
DA:404,1650
DA:405,1650
DA:407,1650
DA:408,326
DA:411,1324
DA:412,1324
DA:414,1324
DA:415,1324
DA:416,1324
DA:418,1324
DA:420,1324
DA:423,470
DA:425,470
DA:426,470
DA:427,470
DA:428,470
DA:431,470
DA:432,470
DA:433,470
DA:434,470
DA:437,470
DA:438,470
DA:439,470
DA:440,470
DA:442,470
DA:443,470
DA:446,470
DA:447,470
DA:448,470
DA:449,470
DA:452,470
DA:453,470
DA:454,470
DA:455,470
DA:462,470
DA:463,470
DA:464,470
DA:465,176
DA:467,470
DA:468,136
DA:470,470
DA:471,380
DA:473,470
DA:474,386
DA:476,470
DA:477,470
DA:479,340
DA:480,340
DA:481,178
DA:483,162
DA:487,340
DA:488,340
DA:489,818
DA:490,478
DA:492,340
DA:494,80
DA:497,260
DA:498,260
DA:499,336
DA:500,76
DA:502,260
DA:504,210
DA:507,50
DA:508,50
DA:510,50
DA:513,50
DA:515,50
DA:516,42
DA:519,8
DA:521,8
DA:522,6
DA:523,2
DA:524,0
DA:525,0
DA:526,0
DA:528,0
DA:529,2
DA:530,2
DA:531,2
DA:532,2
DA:534,0
DA:537,0
DA:538,0
DA:540,0
DA:544,0
DA:547,50
DA:550,50
DA:551,4
DA:553,46
DA:557,50
DA:558,42
DA:560,8
DA:563,404
DA:564,404
DA:565,20
DA:567,384
DA:569,404
DA:571,20
DA:572,30
DA:574,10
DA:575,10
DA:577,0
DA:580,20
DA:582,10
DA:583,10
DA:584,10
DA:586,10
DA:589,0
DA:591,0
DA:594,10
DA:596,30
DA:597,30
DA:598,30
DA:600,20
DA:602,20
DA:604,20
DA:611,30
DA:613,0
DA:615,0
DA:617,0
DA:621,0
DA:623,0
DA:628,0
DA:630,384
DA:631,414
DA:633,30
DA:634,26
DA:636,4
DA:639,384
DA:641,26
DA:642,26
DA:643,26
DA:645,26
DA:648,0
DA:650,0
DA:653,26
DA:655,0
DA:657,0
DA:659,0
DA:663,0
DA:665,0
DA:670,0
DA:672,46
DA:673,46
DA:674,46
DA:676,20
DA:678,20
DA:680,20
DA:687,46
DA:689,24
DA:690,24
DA:691,24
DA:693,24
DA:695,24
DA:696,24
DA:697,24
DA:699,24
DA:700,24
DA:701,24
DA:702,24
DA:703,24
DA:704,24
DA:709,0
DA:710,0
DA:711,0
DA:714,0
DA:715,0
DA:716,0
DA:718,24
DA:720,0
DA:721,0
DA:723,0
DA:724,0
DA:725,0
DA:726,0
DA:727,0
DA:731,0
DA:733,0
DA:734,0
DA:735,0
DA:736,0
DA:739,0
DA:740,0
DA:741,0
DA:743,0
DA:744,0
DA:746,0
DA:748,0
DA:751,0
DA:753,0
DA:754,0
DA:756,0
DA:758,0
DA:767,0
DA:768,0
DA:770,0
DA:772,68
DA:775,980
DA:776,912
DA:779,68
LF:393
LH:311
end_of_record
TN:
SF:/home/runner/work/vectorfontstorm/vectorfontstorm/vectorfontstorm/poly2tri/sweep/sweep_context.cc
FN:111,113,_ZN3p2t12SweepContext8GetPointEm
FN:115,117,_ZN3p2t12SweepContext8AddToMapEPNS_8TriangleE
FN:119,122,_ZN3p2t12SweepContext10LocateNodeERKNS_5PointE
FN:124,141,_ZN3p2t12SweepContext20CreateAdvancingFrontEv
FN:143,145,_ZN3p2t12SweepContext10RemoveNodeEPNS_4NodeE
FN:147,156,_ZN3p2t12SweepContext18MapTriangleToNodesERNS_8TriangleE
FN:158,160,_ZN3p2t12SweepContext13RemoveFromMapEPNS_8TriangleE
FN:162,180,_ZN3p2t12SweepContext9MeshCleanERNS_8TriangleE
FN:182,196,_ZN3p2t12SweepContextD2Ev
FN:37,46,_ZN3p2t12SweepContextC2ERKSt6vectorISt10shared_ptrINS_5PointEESaIS4_EE
FN:48,53,_ZN3p2t12SweepContext7AddHoleERKSt6vectorISt10shared_ptrINS_5PointEESaIS4_EE
FN:55,57,_ZN3p2t12SweepContext8AddPointEPNS_5PointE
FN:59,61,_ZN3p2t12SweepContext12GetTrianglesEv
FN:63,65,_ZN3p2t12SweepContext6GetMapB5cxx11Ev
FN:67,96,_ZN3p2t12SweepContext17InitTriangulationEv
FN:98,109,_ZN3p2t12SweepContext9InitEdgesERKSt6vectorISt10shared_ptrINS_5PointEESaIS4_EE
FNDA:912,_ZN3p2t12SweepContext8GetPointEm
FNDA:1590,_ZN3p2t12SweepContext8AddToMapEPNS_8TriangleE
FNDA:912,_ZN3p2t12SweepContext10LocateNodeERKNS_5PointE
FNDA:68,_ZN3p2t12SweepContext20CreateAdvancingFrontEv
FNDA:0,_ZN3p2t12SweepContext10RemoveNodeEPNS_4NodeE
FNDA:2084,_ZN3p2t12SweepContext18MapTriangleToNodesERNS_8TriangleE
FNDA:0,_ZN3p2t12SweepContext13RemoveFromMapEPNS_8TriangleE
FNDA:68,_ZN3p2t12SweepContext9MeshCleanERNS_8TriangleE
FNDA:68,_ZN3p2t12SweepContextD2Ev
FNDA:68,_ZN3p2t12SweepContextC2ERKSt6vectorISt10shared_ptrINS_5PointEESaIS4_EE
FNDA:22,_ZN3p2t12SweepContext7AddHoleERKSt6vectorISt10shared_ptrINS_5PointEESaIS4_EE
FNDA:0,_ZN3p2t12SweepContext8AddPointEPNS_5PointE
FNDA:0,_ZN3p2t12SweepContext12GetTrianglesEv
FNDA:0,_ZN3p2t12SweepContext6GetMapB5cxx11Ev
FNDA:68,_ZN3p2t12SweepContext17InitTriangulationEv
FNDA:90,_ZN3p2t12SweepContext9InitEdgesERKSt6vectorISt10shared_ptrINS_5PointEESaIS4_EE
FNF:16
FNH:11
DA:37,68
DA:38,68
DA:39,68
DA:40,68
DA:41,68
DA:42,68
DA:43,68
DA:44,68
DA:45,68
DA:46,68
DA:48,22
DA:49,22
DA:50,306
DA:51,284
DA:53,22
DA:55,0
DA:56,0
DA:57,0
DA:59,0
DA:60,0
DA:63,0
DA:64,0
DA:67,68
DA:68,68
DA:69,68
DA:72,1048
DA:73,980
DA:74,980
DA:75,218
DA:77,980
DA:78,82
DA:80,980
DA:81,72
DA:83,980
DA:84,188
DA:88,68
DA:89,68
DA:90,68
DA:91,68
DA:94,68
DA:96,68
DA:98,90
DA:99,90
DA:100,1070
DA:101,980
DA:107,980
DA:109,90
DA:111,912
DA:112,912
DA:115,1590
DA:116,1590
DA:117,1590
DA:119,912
DA:121,912
DA:124,68
DA:126,68
DA:128,68
DA:130,68
DA:131,68
DA:132,68
DA:133,68
DA:137,68
DA:138,68
DA:139,68
DA:140,68
DA:141,68
DA:143,0
DA:144,0
DA:145,0
DA:147,2084
DA:148,8336
DA:149,6252
DA:150,2708
DA:151,2708
DA:152,2708
DA:156,2084
DA:158,0
DA:159,0
DA:160,0
DA:162,68
DA:163,68
DA:164,68
DA:166,1820
DA:167,1752
DA:168,1752
DA:170,1752
DA:171,888
DA:172,888
DA:173,3552
DA:174,2664
DA:175,1684
DA:180,68
DA:182,68
DA:184,68
DA:185,68
DA:186,68
DA:187,68
DA:188,68
DA:189,68
DA:190,1726
DA:191,1658
DA:193,1048
DA:194,980
DA:196,68
LF:104
LH:91
end_of_record
TN:
SF:/home/runner/work/vectorfontstorm/vectorfontstorm/vectorfontstorm/poly2tri/sweep/sweep_context.h
FN:106,107,_ZN3p2t12SweepContext5BasinC2Ev
FN:122,123,_ZN3p2t12SweepContext9EdgeEventC2Ev
FN:151,153,_ZNK3p2t12SweepContext5frontEv
FN:155,157,_ZNK3p2t12SweepContext11point_countEv
FNDA:68,_ZN3p2t12SweepContext5BasinC2Ev
FNDA:68,_ZN3p2t12SweepContext9EdgeEventC2Ev
FNDA:136,_ZNK3p2t12SweepContext5frontEv
FNDA:980,_ZNK3p2t12SweepContext11point_countEv
FNF:4
FNH:4
DA:106,68
DA:107,68
DA:122,68
DA:123,68
DA:151,136
DA:152,136
DA:155,980
DA:156,980
LF:8
LH:8
end_of_record
TN:
SF:/home/runner/work/vectorfontstorm/vectorfontstorm/vectorfontstorm/segment.h
FN:101,152,_ZNK15vectorfontstorm7segmentI10TestVertexE11get_outlineERSt6vectorISt10shared_ptrIN3p2t5PointEESaIS7_EE
FN:155,161,_ZNK15vectorfontstorm7segmentI10TestVertexE17get_outline_firstERSt6vectorISt10shared_ptrIN3p2t5PointEESaIS7_EE
FN:164,223,_ZNK15vectorfontstorm7segmentI10TestVertexE11get_extrudeERNS_11buffer_dataIS1_EE
FN:226,235,_ZNK15vectorfontstorm7segmentI10TestVertexE15subdivide_conicERSt6vectorIS2_SaIS2_EE
FN:237,244,_ZNK15vectorfontstorm7segmentI10TestVertexE15subdivide_cubicERSt6vectorIS2_SaIS2_EE
FN:247,250,_ZN15vectorfontstorm7segmentI10TestVertexE7reverseEv
FN:46,48,_ZN15vectorfontstorm7segmentI10TestVertexEC2Ev
FN:51,53,_ZN15vectorfontstorm7segmentI10TestVertexED2Ev
FN:56,61,_ZN15vectorfontstorm7segmentI10TestVertexE24get_second_to_last_pointEv
FN:64,98,_ZNK15vectorfontstorm7segmentI10TestVertexE11get_outlineERNS_11buffer_dataIS1_EE
FNDA:1406,_ZNK15vectorfontstorm7segmentI10TestVertexE11get_outlineERSt6vectorISt10shared_ptrIN3p2t5PointEESaIS7_EE
FNDA:90,_ZNK15vectorfontstorm7segmentI10TestVertexE17get_outline_firstERSt6vectorISt10shared_ptrIN3p2t5PointEESaIS7_EE
FNDA:703,_ZNK15vectorfontstorm7segmentI10TestVertexE11get_extrudeERNS_11buffer_dataIS1_EE
FNDA:672,_ZNK15vectorfontstorm7segmentI10TestVertexE15subdivide_conicERSt6vectorIS2_SaIS2_EE
FNDA:0,_ZNK15vectorfontstorm7segmentI10TestVertexE15subdivide_cubicERSt6vectorIS2_SaIS2_EE
FNDA:291,_ZN15vectorfontstorm7segmentI10TestVertexE7reverseEv
FNDA:1207,_ZN15vectorfontstorm7segmentI10TestVertexEC2Ev
FNDA:2275,_ZN15vectorfontstorm7segmentI10TestVertexED2Ev
FNDA:445,_ZN15vectorfontstorm7segmentI10TestVertexE24get_second_to_last_pointEv
FNDA:703,_ZNK15vectorfontstorm7segmentI10TestVertexE11get_outlineERNS_11buffer_dataIS1_EE
FNF:10
FNH:9
DA:46,1207
DA:48,1207
DA:51,2275
DA:53,2275
DA:56,445
DA:60,445
DA:64,703
DA:69,703
DA:70,0
DA:71,0
DA:72,0
DA:73,535
DA:74,535
DA:75,535
DA:76,535
DA:77,535
DA:78,535
DA:79,168
DA:81,168
DA:82,168
DA:83,336
DA:84,168
DA:86,168
DA:87,168
DA:88,0
DA:90,0
DA:91,0
DA:92,0
DA:93,0
DA:95,0
DA:96,0
DA:101,1406
DA:106,1406
DA:107,0
DA:108,0
DA:109,0
DA:110,1070
DA:115,1070
DA:116,1460
DA:117,390
DA:121,90
DA:125,980
DA:126,980
DA:127,336
DA:132,336
DA:133,336
DA:134,672
DA:135,336
DA:137,336
DA:138,336
DA:139,0
DA:144,0
DA:145,0
DA:146,0
DA:147,0
DA:149,0
DA:150,0
DA:155,90
DA:160,90
DA:161,90
DA:164,703
DA:169,703
DA:170,0
DA:171,0
DA:172,0
DA:173,535
DA:175,535
DA:178,535
DA:179,535
DA:180,535
DA:181,535
DA:182,535
DA:183,535
DA:184,535
DA:185,535
DA:186,535
DA:187,535
DA:188,535
DA:189,535
DA:203,535
DA:204,168
DA:206,168
DA:207,168
DA:208,336
DA:209,168
DA:211,168
DA:212,168
DA:213,0
DA:215,0
DA:216,0
DA:217,0
DA:218,0
DA:220,0
DA:221,0
DA:226,672
DA:229,672
DA:230,672
DA:231,672
DA:232,672
DA:235,672
DA:237,0
DA:240,0
DA:241,0
DA:242,0
DA:243,0
DA:244,0
DA:247,291
DA:249,291
DA:250,291
LF:109
LH:73
end_of_record
