TN:
SF:/home/runner/work/vectorfontstorm/vectorfontstorm/build/_deps/catch2-src/src/catch2/catch_approx.hpp
FN:42,43,_ZN5Catch6ApproxC2IfvEERKT_
FN:47,50,_ZN5CatcheqIdvEEbRKT_RKNS_6ApproxE
FN:47,50,_ZN5CatcheqIfvEEbRKT_RKNS_6ApproxE
FN:95,99,_ZN5Catch6Approx6marginIdvEERS0_RKT_
FNDA:446,_ZN5Catch6ApproxC2IfvEERKT_
FNDA:6,_ZN5CatcheqIdvEEbRKT_RKNS_6ApproxE
FNDA:446,_ZN5CatcheqIfvEEbRKT_RKNS_6ApproxE
FNDA:60,_ZN5Catch6Approx6marginIdvEERS0_RKT_
FNF:4
FNH:4
DA:42,446
DA:43,446
DA:47,452
DA:48,452
DA:49,452
DA:95,60
DA:96,60
DA:97,60
DA:98,60
LF:9
LH:9
end_of_record
TN:
SF:/home/runner/work/vectorfontstorm/vectorfontstorm/build/_deps/catch2-src/src/catch2/catch_message.hpp
FN:30,33,_ZN5Catch13MessageStreamlsIA23_cEERS0_RKT_
FN:30,33,_ZN5Catch13MessageStreamlsIA44_cEERS0_RKT_
FN:39,42,_ZN5Catch14MessageBuilderC2ENS_9StringRefERKNS_14SourceLineInfoENS_9ResultWas6OfTypeE
FN:45,48,_ZNO5Catch14MessageBuilderlsIA12_cEEOS0_RKT_
FN:45,48,_ZNO5Catch14MessageBuilderlsIA14_cEEOS0_RKT_
FN:45,48,_ZNO5Catch14MessageBuilderlsIFRSt8ios_baseS3_EEEOS0_RKT_
FN:45,48,_ZNO5Catch14MessageBuilderlsIcEEOS0_RKT_
FN:45,48,_ZNO5Catch14MessageBuilderlsIjEEOS0_RKT_
FNDA:0,_ZN5Catch13MessageStreamlsIA23_cEERS0_RKT_
FNDA:0,_ZN5Catch13MessageStreamlsIA44_cEERS0_RKT_
FNDA:15,_ZN5Catch14MessageBuilderC2ENS_9StringRefERKNS_14SourceLineInfoENS_9ResultWas6OfTypeE
FNDA:12,_ZNO5Catch14MessageBuilderlsIA12_cEEOS0_RKT_
FNDA:3,_ZNO5Catch14MessageBuilderlsIA14_cEEOS0_RKT_
FNDA:3,_ZNO5Catch14MessageBuilderlsIFRSt8ios_baseS3_EEEOS0_RKT_
FNDA:12,_ZNO5Catch14MessageBuilderlsIcEEOS0_RKT_
FNDA:3,_ZNO5Catch14MessageBuilderlsIjEEOS0_RKT_
FNF:8
FNH:6
DA:30,0
DA:31,0
DA:32,0
DA:39,15
DA:41,15
DA:42,15
DA:45,33
DA:46,33
DA:47,33
LF:9
LH:6
end_of_record
TN:
SF:/home/runner/work/vectorfontstorm/vectorfontstorm/build/_deps/catch2-src/src/catch2/catch_tostring.hpp
FN:100,102,_ZN5Catch6Detail19convertUnstreamableIN15vectorfontstorm9aligntypeEEENSt9enable_ifIXsrSt7is_enumIT_E5valueENSt7__cxx1112basic_stringIcSt11char_traitsIcESaIcEEEE4typeERKS6_
FN:135,141,_ZN5Catch11StringMakerIN15vectorfontstorm9aligntypeEvE7convertIS2_EENSt9enable_ifIXntsrNS_6Detail18IsStreamInsertableIT_EE5valueENSt7__cxx1112basic_stringIcSt11char_traitsIcESaIcEEEE4typeERKS8_
FN:149,151,_ZN5Catch6Detail9stringifyIN15vectorfontstorm9aligntypeEEENSt7__cxx1112basic_stringIcSt11char_traitsIcESaIcEEERKT_
FN:149,151,_ZN5Catch6Detail9stringifyINS_6ApproxEEENSt7__cxx1112basic_stringIcSt11char_traitsIcESaIcEEERKT_
FN:149,151,_ZN5Catch6Detail9stringifyIbEENSt7__cxx1112basic_stringIcSt11char_traitsIcESaIcEEERKT_
FN:149,151,_ZN5Catch6Detail9stringifyIdEENSt7__cxx1112basic_stringIcSt11char_traitsIcESaIcEEERKT_
FN:149,151,_ZN5Catch6Detail9stringifyIfEENSt7__cxx1112basic_stringIcSt11char_traitsIcESaIcEEERKT_
FN:149,151,_ZN5Catch6Detail9stringifyIiEENSt7__cxx1112basic_stringIcSt11char_traitsIcESaIcEEERKT_
FN:149,151,_ZN5Catch6Detail9stringifyIjEENSt7__cxx1112basic_stringIcSt11char_traitsIcESaIcEEERKT_
FN:149,151,_ZN5Catch6Detail9stringifyImEENSt7__cxx1112basic_stringIcSt11char_traitsIcESaIcEEERKT_
FN:154,156,_ZN5Catch6Detail26convertUnknownEnumToStringIN15vectorfontstorm9aligntypeEEENSt7__cxx1112basic_stringIcSt11char_traitsIcESaIcEEET_
FN:270,273,_ZN5Catch11StringMakerIbvE7convertB5cxx11Eb
FNDA:0,_ZN5Catch6Detail19convertUnstreamableIN15vectorfontstorm9aligntypeEEENSt9enable_ifIXsrSt7is_enumIT_E5valueENSt7__cxx1112basic_stringIcSt11char_traitsIcESaIcEEEE4typeERKS6_
FNDA:0,_ZN5Catch11StringMakerIN15vectorfontstorm9aligntypeEvE7convertIS2_EENSt9enable_ifIXntsrNS_6Detail18IsStreamInsertableIT_EE5valueENSt7__cxx1112basic_stringIcSt11char_traitsIcESaIcEEEE4typeERKS8_
FNDA:0,_ZN5Catch6Detail9stringifyIN15vectorfontstorm9aligntypeEEENSt7__cxx1112basic_stringIcSt11char_traitsIcESaIcEEERKT_
FNDA:0,_ZN5Catch6Detail9stringifyINS_6ApproxEEENSt7__cxx1112basic_stringIcSt11char_traitsIcESaIcEEERKT_
FNDA:0,_ZN5Catch6Detail9stringifyIbEENSt7__cxx1112basic_stringIcSt11char_traitsIcESaIcEEERKT_
FNDA:0,_ZN5Catch6Detail9stringifyIdEENSt7__cxx1112basic_stringIcSt11char_traitsIcESaIcEEERKT_
FNDA:0,_ZN5Catch6Detail9stringifyIfEENSt7__cxx1112basic_stringIcSt11char_traitsIcESaIcEEERKT_
FNDA:0,_ZN5Catch6Detail9stringifyIiEENSt7__cxx1112basic_stringIcSt11char_traitsIcESaIcEEERKT_
FNDA:0,_ZN5Catch6Detail9stringifyIjEENSt7__cxx1112basic_stringIcSt11char_traitsIcESaIcEEERKT_
FNDA:0,_ZN5Catch6Detail9stringifyImEENSt7__cxx1112basic_stringIcSt11char_traitsIcESaIcEEERKT_
FNDA:0,_ZN5Catch6Detail26convertUnknownEnumToStringIN15vectorfontstorm9aligntypeEEENSt7__cxx1112basic_stringIcSt11char_traitsIcESaIcEEET_
FNDA:0,_ZN5Catch11StringMakerIbvE7convertB5cxx11Eb
FNF:12
FNH:0
DA:100,0
DA:101,0
DA:135,0
DA:137,0
DA:149,0
DA:150,0
DA:154,0
DA:155,0
DA:270,0
DA:272,0
LF:10
LH:0
end_of_record
TN:
SF:/home/runner/work/vectorfontstorm/vectorfontstorm/build/_deps/catch2-src/src/catch2/internal/catch_assertion_handler.hpp
FN:37,41,_ZN5Catch16AssertionHandlerD2Ev
FN:45,47,_ZN5Catch16AssertionHandler10handleExprIbEEvRKNS_7ExprLhsIT_EE
FNDA:1108,_ZN5Catch16AssertionHandlerD2Ev
FNDA:55,_ZN5Catch16AssertionHandler10handleExprIbEEvRKNS_7ExprLhsIT_EE
FNF:2
FNH:2
DA:37,1108
DA:38,1108
DA:39,0
DA:41,1108
DA:45,55
DA:46,55
DA:47,55
LF:7
LH:6
end_of_record
TN:
SF:/home/runner/work/vectorfontstorm/vectorfontstorm/build/_deps/catch2-src/src/catch2/internal/catch_decomposer.hpp
FN:158,161,_ZN5Catch20ITransientExpressionC2Ebb
FN:169,169,_ZN5Catch20ITransientExpressionD0Ev
FN:169,169,_ZN5Catch20ITransientExpressionD2Ev
FN:185,188,_ZNK5Catch10BinaryExprIRKN15vectorfontstorm9aligntypeES4_E29streamReconstructedExpressionERSo
FN:185,188,_ZNK5Catch10BinaryExprIdRKNS_6ApproxEE29streamReconstructedExpressionERSo
FN:185,188,_ZNK5Catch10BinaryExprIfRKNS_6ApproxEE29streamReconstructedExpressionERSo
FN:185,188,_ZNK5Catch10BinaryExprIfRNS_6ApproxEE29streamReconstructedExpressionERSo
FN:185,188,_ZNK5Catch10BinaryExprIffE29streamReconstructedExpressionERSo
FN:185,188,_ZNK5Catch10BinaryExprIjiE29streamReconstructedExpressionERSo
FN:185,188,_ZNK5Catch10BinaryExprIjmE29streamReconstructedExpressionERSo
FN:185,188,_ZNK5Catch10BinaryExprImiE29streamReconstructedExpressionERSo
FN:185,188,_ZNK5Catch10BinaryExprImmE29streamReconstructedExpressionERSo
FN:191,196,_ZN5Catch10BinaryExprIRKN15vectorfontstorm9aligntypeES4_EC2EbS4_NS_9StringRefES4_
FN:191,196,_ZN5Catch10BinaryExprIdRKNS_6ApproxEEC2EbdNS_9StringRefES3_
FN:191,196,_ZN5Catch10BinaryExprIfRKNS_6ApproxEEC2EbfNS_9StringRefES3_
FN:191,196,_ZN5Catch10BinaryExprIfRNS_6ApproxEEC2EbfNS_9StringRefES2_
FN:191,196,_ZN5Catch10BinaryExprIffEC2EbfNS_9StringRefEf
FN:191,196,_ZN5Catch10BinaryExprIjiEC2EbjNS_9StringRefEi
FN:191,196,_ZN5Catch10BinaryExprIjmEC2EbjNS_9StringRefEm
FN:191,196,_ZN5Catch10BinaryExprImiEC2EbmNS_9StringRefEi
FN:191,196,_ZN5Catch10BinaryExprImmEC2EbmNS_9StringRefEm
FN:259,261,_ZNK5Catch9UnaryExprIbE29streamReconstructedExpressionERSo
FN:264,267,_ZN5Catch9UnaryExprIbEC2Eb
FN:275,275,_ZN5Catch7ExprLhsIRKN15vectorfontstorm9aligntypeEEC2ES4_
FN:275,275,_ZN5Catch7ExprLhsIbEC2Eb
FN:275,275,_ZN5Catch7ExprLhsIdEC2Ed
FN:275,275,_ZN5Catch7ExprLhsIfEC2Ef
FN:275,275,_ZN5Catch7ExprLhsIjEC2Ej
FN:275,275,_ZN5Catch7ExprLhsImEC2Em
FN:325,325,_ZN5CatcheqINS_6ApproxEEENSt9enable_ifIXsrSt11conjunctionIJNS_6Detail16is_eq_comparableIdT_vEESt8negationINS_16capture_by_valueINSt16remove_referenceIS6_E4typeEEEEEE5valueENS_10BinaryExprIdRKS6_EEE4typeEONS_7ExprLhsIdEEOS6_
FN:325,325,_ZN5CatcheqINS_6ApproxEEENSt9enable_ifIXsrSt11conjunctionIJNS_6Detail16is_eq_comparableIfT_vEESt8negationINS_16capture_by_valueINSt16remove_referenceIS6_E4typeEEEEEE5valueENS_10BinaryExprIfRKS6_EEE4typeEONS_7ExprLhsIfEEOS6_
FN:325,325,_ZN5CatcheqIRNS_6ApproxEEENSt9enable_ifIXsrSt11conjunctionIJNS_6Detail16is_eq_comparableIfT_vEESt8negationINS_16capture_by_valueINSt16remove_referenceIS7_E4typeEEEEEE5valueENS_10BinaryExprIfRKS7_EEE4typeEONS_7ExprLhsIfEEOS7_
FN:325,325,_ZN5CatcheqIfEENSt9enable_ifIXsrSt11conjunctionIJNS_6Detail16is_eq_comparableIfT_vEENS_16capture_by_valueIS5_EEEE5valueENS_10BinaryExprIfS5_EEE4typeEONS_7ExprLhsIfEES5_
FN:325,325,_ZN5CatcheqIiEENSt9enable_ifIXsrSt11conjunctionIJNS_6Detail16is_eq_comparableIjT_vEENS_16capture_by_valueIS5_EEEE5valueENS_10BinaryExprIjS5_EEE4typeEONS_7ExprLhsIjEES5_
FN:325,325,_ZN5CatcheqIiEENSt9enable_ifIXsrSt11conjunctionIJNS_6Detail16is_eq_comparableImT_vEENS_16capture_by_valueIS5_EEEE5valueENS_10BinaryExprImS5_EEE4typeEONS_7ExprLhsImEES5_
FN:325,325,_ZN5CatcheqImEENSt9enable_ifIXsrSt11conjunctionIJNS_6Detail16is_eq_comparableImT_vEENS_16capture_by_valueIS5_EEEE5valueENS_10BinaryExprImS5_EEE4typeEONS_7ExprLhsImEES5_
FN:326,326,_ZN5CatchneIN15vectorfontstorm9aligntypeEEENSt9enable_ifIXsrSt11conjunctionIJNS_6Detail16is_ne_comparableIRKS2_T_vEESt8negationINS_16capture_by_valueINSt16remove_referenceIS9_E4typeEEEEEE5valueENS_10BinaryExprIS8_RKS9_EEE4typeEONS_7ExprLhsIS8_EEOS9_
FN:326,326,_ZN5CatchneImEENSt9enable_ifIXsrSt11conjunctionIJNS_6Detail16is_ne_comparableImT_vEENS_16capture_by_valueIS5_EEEE5valueENS_10BinaryExprImS5_EEE4typeEONS_7ExprLhsImEES5_
FN:375,375,_ZN5CatchltIfEENSt9enable_ifIXsrSt11conjunctionIJNS_6Detail16is_lt_comparableIfT_vEENS_16capture_by_valueIS5_EEEE5valueENS_10BinaryExprIfS5_EEE4typeEONS_7ExprLhsIfEES5_
FN:375,375,_ZN5CatchltImEENSt9enable_ifIXsrSt11conjunctionIJNS_6Detail16is_lt_comparableIjT_vEENS_16capture_by_valueIS5_EEEE5valueENS_10BinaryExprIjS5_EEE4typeEONS_7ExprLhsIjEES5_
FN:377,377,_ZN5CatchgtIfEENSt9enable_ifIXsrSt11conjunctionIJNS_6Detail16is_gt_comparableIfT_vEENS_16capture_by_valueIS5_EEEE5valueENS_10BinaryExprIfS5_EEE4typeEONS_7ExprLhsIfEES5_
FN:420,422,_ZNK5Catch7ExprLhsIbE13makeUnaryExprEv
FN:430,432,_ZN5CatchleIN15vectorfontstorm9aligntypeELi0EEENS_7ExprLhsIRKT_EEONS_10DecomposerEOS4_
FN:436,438,_ZN5CatchleIbLi0EEENS_7ExprLhsIT_EEONS_10DecomposerES2_
FN:436,438,_ZN5CatchleIdLi0EEENS_7ExprLhsIT_EEONS_10DecomposerES2_
FN:436,438,_ZN5CatchleIfLi0EEENS_7ExprLhsIT_EEONS_10DecomposerES2_
FN:436,438,_ZN5CatchleIjLi0EEENS_7ExprLhsIT_EEONS_10DecomposerES2_
FN:436,438,_ZN5CatchleImLi0EEENS_7ExprLhsIT_EEONS_10DecomposerES2_
FNDA:1108,_ZN5Catch20ITransientExpressionC2Ebb
FNDA:0,_ZN5Catch20ITransientExpressionD0Ev
FNDA:1108,_ZN5Catch20ITransientExpressionD2Ev
FNDA:0,_ZNK5Catch10BinaryExprIRKN15vectorfontstorm9aligntypeES4_E29streamReconstructedExpressionERSo
FNDA:0,_ZNK5Catch10BinaryExprIdRKNS_6ApproxEE29streamReconstructedExpressionERSo
FNDA:0,_ZNK5Catch10BinaryExprIfRKNS_6ApproxEE29streamReconstructedExpressionERSo
FNDA:0,_ZNK5Catch10BinaryExprIfRNS_6ApproxEE29streamReconstructedExpressionERSo
FNDA:0,_ZNK5Catch10BinaryExprIffE29streamReconstructedExpressionERSo
FNDA:0,_ZNK5Catch10BinaryExprIjiE29streamReconstructedExpressionERSo
FNDA:0,_ZNK5Catch10BinaryExprIjmE29streamReconstructedExpressionERSo
FNDA:0,_ZNK5Catch10BinaryExprImiE29streamReconstructedExpressionERSo
FNDA:0,_ZNK5Catch10BinaryExprImmE29streamReconstructedExpressionERSo
FNDA:6,_ZN5Catch10BinaryExprIRKN15vectorfontstorm9aligntypeES4_EC2EbS4_NS_9StringRefES4_
FNDA:6,_ZN5Catch10BinaryExprIdRKNS_6ApproxEEC2EbdNS_9StringRefES3_
FNDA:386,_ZN5Catch10BinaryExprIfRKNS_6ApproxEEC2EbfNS_9StringRefES3_
FNDA:60,_ZN5Catch10BinaryExprIfRNS_6ApproxEEC2EbfNS_9StringRefES2_
FNDA:154,_ZN5Catch10BinaryExprIffEC2EbfNS_9StringRefEf
FNDA:5,_ZN5Catch10BinaryExprIjiEC2EbjNS_9StringRefEi
FNDA:408,_ZN5Catch10BinaryExprIjmEC2EbjNS_9StringRefEm
FNDA:20,_ZN5Catch10BinaryExprImiEC2EbmNS_9StringRefEi
FNDA:8,_ZN5Catch10BinaryExprImmEC2EbmNS_9StringRefEm
FNDA:0,_ZNK5Catch9UnaryExprIbE29streamReconstructedExpressionERSo
FNDA:55,_ZN5Catch9UnaryExprIbEC2Eb
FNDA:6,_ZN5Catch7ExprLhsIRKN15vectorfontstorm9aligntypeEEC2ES4_
FNDA:55,_ZN5Catch7ExprLhsIbEC2Eb
FNDA:6,_ZN5Catch7ExprLhsIdEC2Ed
FNDA:600,_ZN5Catch7ExprLhsIfEC2Ef
FNDA:413,_ZN5Catch7ExprLhsIjEC2Ej
FNDA:28,_ZN5Catch7ExprLhsImEC2Em
FNDA:6,_ZN5CatcheqINS_6ApproxEEENSt9enable_ifIXsrSt11conjunctionIJNS_6Detail16is_eq_comparableIdT_vEESt8negationINS_16capture_by_valueINSt16remove_referenceIS6_E4typeEEEEEE5valueENS_10BinaryExprIdRKS6_EEE4typeEONS_7ExprLhsIdEEOS6_
FNDA:386,_ZN5CatcheqINS_6ApproxEEENSt9enable_ifIXsrSt11conjunctionIJNS_6Detail16is_eq_comparableIfT_vEESt8negationINS_16capture_by_valueINSt16remove_referenceIS6_E4typeEEEEEE5valueENS_10BinaryExprIfRKS6_EEE4typeEONS_7ExprLhsIfEEOS6_
FNDA:60,_ZN5CatcheqIRNS_6ApproxEEENSt9enable_ifIXsrSt11conjunctionIJNS_6Detail16is_eq_comparableIfT_vEESt8negationINS_16capture_by_valueINSt16remove_referenceIS7_E4typeEEEEEE5valueENS_10BinaryExprIfRKS7_EEE4typeEONS_7ExprLhsIfEEOS7_
FNDA:3,_ZN5CatcheqIfEENSt9enable_ifIXsrSt11conjunctionIJNS_6Detail16is_eq_comparableIfT_vEENS_16capture_by_valueIS5_EEEE5valueENS_10BinaryExprIfS5_EEE4typeEONS_7ExprLhsIfEES5_
FNDA:5,_ZN5CatcheqIiEENSt9enable_ifIXsrSt11conjunctionIJNS_6Detail16is_eq_comparableIjT_vEENS_16capture_by_valueIS5_EEEE5valueENS_10BinaryExprIjS5_EEE4typeEONS_7ExprLhsIjEES5_
FNDA:20,_ZN5CatcheqIiEENSt9enable_ifIXsrSt11conjunctionIJNS_6Detail16is_eq_comparableImT_vEENS_16capture_by_valueIS5_EEEE5valueENS_10BinaryExprImS5_EEE4typeEONS_7ExprLhsImEES5_
FNDA:7,_ZN5CatcheqImEENSt9enable_ifIXsrSt11conjunctionIJNS_6Detail16is_eq_comparableImT_vEENS_16capture_by_valueIS5_EEEE5valueENS_10BinaryExprImS5_EEE4typeEONS_7ExprLhsImEES5_
FNDA:6,_ZN5CatchneIN15vectorfontstorm9aligntypeEEENSt9enable_ifIXsrSt11conjunctionIJNS_6Detail16is_ne_comparableIRKS2_T_vEESt8negationINS_16capture_by_valueINSt16remove_referenceIS9_E4typeEEEEEE5valueENS_10BinaryExprIS8_RKS9_EEE4typeEONS_7ExprLhsIS8_EEOS9_
FNDA:1,_ZN5CatchneImEENSt9enable_ifIXsrSt11conjunctionIJNS_6Detail16is_ne_comparableImT_vEENS_16capture_by_valueIS5_EEEE5valueENS_10BinaryExprImS5_EEE4typeEONS_7ExprLhsImEES5_
FNDA:66,_ZN5CatchltIfEENSt9enable_ifIXsrSt11conjunctionIJNS_6Detail16is_lt_comparableIfT_vEENS_16capture_by_valueIS5_EEEE5valueENS_10BinaryExprIfS5_EEE4typeEONS_7ExprLhsIfEES5_
FNDA:408,_ZN5CatchltImEENSt9enable_ifIXsrSt11conjunctionIJNS_6Detail16is_lt_comparableIjT_vEENS_16capture_by_valueIS5_EEEE5valueENS_10BinaryExprIjS5_EEE4typeEONS_7ExprLhsIjEES5_
FNDA:85,_ZN5CatchgtIfEENSt9enable_ifIXsrSt11conjunctionIJNS_6Detail16is_gt_comparableIfT_vEENS_16capture_by_valueIS5_EEEE5valueENS_10BinaryExprIfS5_EEE4typeEONS_7ExprLhsIfEES5_
FNDA:55,_ZNK5Catch7ExprLhsIbE13makeUnaryExprEv
FNDA:6,_ZN5CatchleIN15vectorfontstorm9aligntypeELi0EEENS_7ExprLhsIRKT_EEONS_10DecomposerEOS4_
FNDA:55,_ZN5CatchleIbLi0EEENS_7ExprLhsIT_EEONS_10DecomposerES2_
FNDA:6,_ZN5CatchleIdLi0EEENS_7ExprLhsIT_EEONS_10DecomposerES2_
FNDA:600,_ZN5CatchleIfLi0EEENS_7ExprLhsIT_EEONS_10DecomposerES2_
FNDA:413,_ZN5CatchleIjLi0EEENS_7ExprLhsIT_EEONS_10DecomposerES2_
FNDA:28,_ZN5CatchleImLi0EEENS_7ExprLhsIT_EEONS_10DecomposerES2_
FNF:48
FNH:37
DA:158,1108
DA:159,1108
DA:160,1108
DA:161,1108
DA:169,1108
DA:185,0
DA:187,0
DA:188,0
DA:191,1053
DA:193,1053
DA:194,1053
DA:195,1053
DA:196,1053
DA:259,0
DA:260,0
DA:261,0
DA:264,55
DA:266,55
DA:267,55
DA:275,1108
DA:325,487
DA:326,7
DA:375,474
DA:377,85
DA:420,55
DA:421,55
DA:430,6
DA:431,6
DA:436,1102
DA:437,1102
LF:30
LH:24
end_of_record
TN:
SF:/home/runner/work/vectorfontstorm/vectorfontstorm/build/_deps/catch2-src/src/catch2/internal/catch_message_info.hpp
FNF:0
FNH:0
LF:0
LH:0
end_of_record
TN:
SF:/home/runner/work/vectorfontstorm/vectorfontstorm/build/_deps/catch2-src/src/catch2/internal/catch_reusable_string_stream.hpp
FN:45,48,_ZN5Catch20ReusableStringStreamlsIA12_cEERS0_RKT_
FN:45,48,_ZN5Catch20ReusableStringStreamlsIA14_cEERS0_RKT_
FN:45,48,_ZN5Catch20ReusableStringStreamlsIA23_cEERS0_RKT_
FN:45,48,_ZN5Catch20ReusableStringStreamlsIA44_cEERS0_RKT_
FN:45,48,_ZN5Catch20ReusableStringStreamlsIFRSt8ios_baseS3_EEERS0_RKT_
FN:45,48,_ZN5Catch20ReusableStringStreamlsIcEERS0_RKT_
FN:45,48,_ZN5Catch20ReusableStringStreamlsIjEERS0_RKT_
FNDA:12,_ZN5Catch20ReusableStringStreamlsIA12_cEERS0_RKT_
FNDA:3,_ZN5Catch20ReusableStringStreamlsIA14_cEERS0_RKT_
FNDA:0,_ZN5Catch20ReusableStringStreamlsIA23_cEERS0_RKT_
FNDA:0,_ZN5Catch20ReusableStringStreamlsIA44_cEERS0_RKT_
FNDA:3,_ZN5Catch20ReusableStringStreamlsIFRSt8ios_baseS3_EEERS0_RKT_
FNDA:12,_ZN5Catch20ReusableStringStreamlsIcEERS0_RKT_
FNDA:3,_ZN5Catch20ReusableStringStreamlsIjEERS0_RKT_
FNF:7
FNH:5
DA:45,33
DA:46,33
DA:47,33
LF:3
LH:3
end_of_record
TN:
SF:/home/runner/work/vectorfontstorm/vectorfontstorm/build/_deps/catch2-src/src/catch2/internal/catch_source_line_info.hpp
FN:19,22,_ZN5Catch14SourceLineInfoC2EPKcm
FNDA:1806,_ZN5Catch14SourceLineInfoC2EPKcm
FNF:1
FNH:1
DA:19,1806
DA:20,1806
DA:21,1806
DA:22,1806
LF:4
LH:4
end_of_record
TN:
SF:/home/runner/work/vectorfontstorm/vectorfontstorm/build/_deps/catch2-src/src/catch2/internal/catch_stream_end_stop.hpp
FN:23,25,_ZN5CatchplIA23_cEERKT_S4_NS_13StreamEndStopE
FN:23,25,_ZN5CatchplIA44_cEERKT_S4_NS_13StreamEndStopE
FNDA:0,_ZN5CatchplIA23_cEERKT_S4_NS_13StreamEndStopE
FNDA:0,_ZN5CatchplIA44_cEERKT_S4_NS_13StreamEndStopE
FNF:2
FNH:0
DA:23,0
DA:24,0
LF:2
LH:0
end_of_record
TN:
SF:/home/runner/work/vectorfontstorm/vectorfontstorm/build/_deps/catch2-src/src/catch2/internal/catch_stringref.hpp
FN:114,116,_ZN5Catchli3_srEPKcm
FN:119,121,_Zli9_catch_srPKcm
FN:37,37,_ZN5Catch9StringRefC2Ev
FN:41,44,_ZN5Catch9StringRefC2EPKcm
FN:46,49,_ZN5Catch9StringRefC2ERKNSt7__cxx1112basic_stringIcSt11char_traitsIcESaIcEEE
FNDA:14005,_ZN5Catchli3_srEPKcm
FNDA:2231,_Zli9_catch_srPKcm
FNDA:4192,_ZN5Catch9StringRefC2Ev
FNDA:24044,_ZN5Catch9StringRefC2EPKcm
FNDA:2444,_ZN5Catch9StringRefC2ERKNSt7__cxx1112basic_stringIcSt11char_traitsIcESaIcEEE
FNF:5
FNH:5
DA:37,4192
DA:41,24044
DA:42,24044
DA:43,24044
DA:44,24044
DA:46,2444
DA:47,2444
DA:48,2444
DA:49,2444
DA:114,14005
DA:115,14005
DA:119,2231
DA:120,2231
LF:13
LH:13
end_of_record
TN:
SF:/home/runner/work/vectorfontstorm/vectorfontstorm/build/_deps/catch2-src/src/catch2/internal/catch_test_registry.hpp
FN:51,53,_ZN5Catch11NameAndTagsC2ENS_9StringRefES1_
FNDA:650,_ZN5Catch11NameAndTagsC2ENS_9StringRefES1_
FNF:1
FNH:1
DA:51,650
DA:52,650
DA:53,650
LF:3
LH:3
end_of_record
TN:
SF:/home/runner/work/vectorfontstorm/vectorfontstorm/build/_deps/catch2-src/src/catch2/internal/catch_unique_ptr.hpp
FN:59,61,_ZN5Catch6Detail10unique_ptrINS_12ITestInvokerEED2Ev
FNDA:2756,_ZN5Catch6Detail10unique_ptrINS_12ITestInvokerEED2Ev
FNF:1
FNH:1
DA:59,2756
DA:60,2756
DA:61,2756
LF:3
LH:3
end_of_record
TN:
SF:/home/runner/work/vectorfontstorm/vectorfontstorm/tests/stubs/vectorstorm/vector/vector2.h
FN:14,14,_ZN7vector2IfEC2Ev
FN:15,15,_ZN7vector2IfEC2Eff
FN:18,20,_ZNK7vector2IfE4lerpEfRKS0_
FN:24,26,_ZlsIfERSoS0_RK7vector2IT_E
FNDA:0,_ZN7vector2IfEC2Ev
FNDA:703,_ZN7vector2IfEC2Eff
FNDA:168,_ZNK7vector2IfE4lerpEfRKS0_
FNDA:0,_ZlsIfERSoS0_RK7vector2IT_E
FNF:4
FNH:2
DA:14,0
DA:15,703
DA:18,168
DA:19,168
DA:24,0
DA:25,0
LF:6
LH:3
end_of_record
TN:
SF:/home/runner/work/vectorfontstorm/vectorfontstorm/tests/tests.cpp
FN:111,123,_ZL22CATCH2_INTERNAL_TEST_6v
FN:128,131,_ZL22CATCH2_INTERNAL_TEST_8v
FN:133,136,_ZL23CATCH2_INTERNAL_TEST_10v
FN:138,153,_ZL23CATCH2_INTERNAL_TEST_12v
FN:155,162,_ZL23CATCH2_INTERNAL_TEST_14v
FN:164,193,_ZL23CATCH2_INTERNAL_TEST_16v
FN:211,215,_ZN11FontFixtureC2Ed
FN:216,216,_ZN11FontFixtureD2Ev
FN:217,217,_ZN11FontFixture4fontEv
FN:220,234,_ZL23CATCH2_INTERNAL_TEST_18v
FN:236,252,_ZL23CATCH2_INTERNAL_TEST_22v
FN:254,273,_ZL23CATCH2_INTERNAL_TEST_25v
FN:275,296,_ZL23CATCH2_INTERNAL_TEST_28v
FN:298,310,_ZL23CATCH2_INTERNAL_TEST_30v
FN:312,325,_ZL23CATCH2_INTERNAL_TEST_32v
FN:327,344,_ZL23CATCH2_INTERNAL_TEST_35v
FN:346,361,_ZL23CATCH2_INTERNAL_TEST_37v
FN:363,377,_ZL23CATCH2_INTERNAL_TEST_39v
FN:379,392,_ZL23CATCH2_INTERNAL_TEST_41v
FN:38,38,_ZN10TestVertexC2Efff
FN:394,412,_ZL23CATCH2_INTERNAL_TEST_43v
FN:414,434,_ZL23CATCH2_INTERNAL_TEST_45v
FN:436,450,_ZL23CATCH2_INTERNAL_TEST_47v
FN:44,52,_ZL14load_font_filePKc
FN:452,469,_ZL23CATCH2_INTERNAL_TEST_50v
FN:471,493,_ZL23CATCH2_INTERNAL_TEST_52v
FN:495,512,_ZL23CATCH2_INTERNAL_TEST_54v
FN:57,83,_ZL22CATCH2_INTERNAL_TEST_0v
FN:88,92,_ZL22CATCH2_INTERNAL_TEST_2v
FN:94,109,_ZL22CATCH2_INTERNAL_TEST_4v
FNDA:1,_ZL22CATCH2_INTERNAL_TEST_6v
FNDA:1,_ZL22CATCH2_INTERNAL_TEST_8v
FNDA:1,_ZL23CATCH2_INTERNAL_TEST_10v
FNDA:1,_ZL23CATCH2_INTERNAL_TEST_12v
FNDA:1,_ZL23CATCH2_INTERNAL_TEST_14v
FNDA:1,_ZL23CATCH2_INTERNAL_TEST_16v
FNDA:14,_ZN11FontFixtureC2Ed
FNDA:14,_ZN11FontFixtureD2Ev
FNDA:29,_ZN11FontFixture4fontEv
FNDA:2,_ZL23CATCH2_INTERNAL_TEST_18v
FNDA:1,_ZL23CATCH2_INTERNAL_TEST_22v
FNDA:1,_ZL23CATCH2_INTERNAL_TEST_25v
FNDA:1,_ZL23CATCH2_INTERNAL_TEST_28v
FNDA:1,_ZL23CATCH2_INTERNAL_TEST_30v
FNDA:1,_ZL23CATCH2_INTERNAL_TEST_32v
FNDA:1,_ZL23CATCH2_INTERNAL_TEST_35v
FNDA:1,_ZL23CATCH2_INTERNAL_TEST_37v
FNDA:1,_ZL23CATCH2_INTERNAL_TEST_39v
FNDA:1,_ZL23CATCH2_INTERNAL_TEST_41v
FNDA:6953,_ZN10TestVertexC2Efff
FNDA:1,_ZL23CATCH2_INTERNAL_TEST_43v
FNDA:1,_ZL23CATCH2_INTERNAL_TEST_45v
FNDA:1,_ZL23CATCH2_INTERNAL_TEST_47v
FNDA:17,_ZL14load_font_filePKc
FNDA:1,_ZL23CATCH2_INTERNAL_TEST_50v
FNDA:1,_ZL23CATCH2_INTERNAL_TEST_52v
FNDA:1,_ZL23CATCH2_INTERNAL_TEST_54v
FNDA:1,_ZL22CATCH2_INTERNAL_TEST_0v
FNDA:1,_ZL22CATCH2_INTERNAL_TEST_2v
FNDA:1,_ZL22CATCH2_INTERNAL_TEST_4v
FNF:30
FNH:30
DA:38,6953
DA:44,17
DA:45,17
DA:46,17
DA:47,17
DA:48,17
DA:49,17
DA:50,17
DA:51,17
DA:52,17
DA:57,1
DA:61,1
DA:62,1
DA:63,1
DA:64,1
DA:65,1
DA:66,1
DA:69,1
DA:70,1
DA:71,1
DA:72,0
DA:73,0
DA:74,0
DA:75,0
DA:76,0
DA:77,1
DA:78,0
DA:79,0
DA:80,0
DA:82,1
DA:83,1
DA:88,1
DA:89,1
DA:90,1
DA:91,1
DA:92,1
DA:94,1
DA:95,1
DA:97,1
DA:98,1
DA:99,1
DA:100,1
DA:102,1
DA:103,1
DA:104,1
DA:105,1
DA:106,1
DA:107,1
DA:108,1
DA:109,1
DA:111,1
DA:112,1
DA:113,1
DA:114,1
DA:116,1
DA:117,1
DA:118,1
DA:121,1
DA:122,1
DA:123,1
DA:128,1
DA:129,1
DA:130,1
DA:131,1
DA:133,1
DA:134,1
DA:135,1
DA:136,1
DA:138,1
DA:139,1
DA:143,1
DA:145,1
DA:146,1
DA:147,1
DA:148,1
DA:149,1
DA:151,1
DA:152,1
DA:153,1
DA:155,1
DA:156,1
DA:157,1
DA:159,1
DA:160,1
DA:161,1
DA:162,1
DA:164,1
DA:167,1
DA:169,1
DA:170,1
DA:171,1
DA:172,1
DA:173,1
DA:174,1
DA:175,1
DA:177,1
DA:179,1
DA:180,1
DA:181,1
DA:182,1
DA:184,1
DA:187,1
DA:189,1
DA:190,1
DA:191,1
DA:192,1
DA:193,1
DA:211,14
DA:212,14
DA:213,14
DA:214,14
DA:215,14
DA:216,14
DA:217,29
DA:220,2
DA:221,4
DA:222,0
DA:224,2
DA:225,1
DA:226,1
DA:227,1
DA:228,1
DA:229,3
DA:230,2
DA:231,1
DA:232,1
DA:233,3
DA:234,2
DA:236,1
DA:237,2
DA:238,0
DA:240,1
DA:242,9
DA:243,7
DA:244,7
DA:245,7
DA:246,7
DA:247,7
DA:248,7
DA:250,7
DA:251,8
DA:252,1
DA:254,1
DA:255,2
DA:256,0
DA:258,1
DA:260,6
DA:261,4
DA:262,4
DA:263,4
DA:264,4
DA:265,4
DA:267,4
DA:269,340
DA:270,336
DA:272,5
DA:273,1
DA:275,1
DA:276,2
DA:277,0
DA:279,1
DA:281,1
DA:282,1
DA:283,1
DA:286,1
DA:287,1
DA:290,34
DA:291,33
DA:293,34
DA:294,33
DA:296,1
DA:298,1
DA:299,2
DA:300,0
DA:302,1
DA:304,1
DA:305,1
DA:306,1
DA:307,1
DA:309,1
DA:310,1
DA:312,1
DA:313,2
DA:314,0
DA:316,1
DA:318,3
DA:319,1
DA:320,1
DA:321,1
DA:322,1
DA:323,1
DA:324,2
DA:325,1
DA:327,1
DA:328,2
DA:329,0
DA:331,1
DA:333,1
DA:334,1
DA:335,1
DA:337,1
DA:338,1
DA:339,85
DA:340,84
DA:341,84
DA:342,84
DA:344,1
DA:346,1
DA:347,2
DA:348,0
DA:350,1
DA:352,1
DA:353,1
DA:355,1
DA:356,1
DA:357,1
DA:358,1
DA:360,1
DA:361,1
DA:363,1
DA:364,2
DA:365,0
DA:367,1
DA:369,1
DA:370,1
DA:372,1
DA:373,1
DA:374,1
DA:375,1
DA:376,1
DA:377,1
DA:379,1
DA:380,2
DA:381,0
DA:383,1
DA:385,1
DA:386,1
DA:387,1
DA:388,1
DA:391,1
DA:392,1
DA:394,1
DA:395,2
DA:396,0
DA:398,1
DA:400,1
DA:401,1
DA:402,1
DA:406,34
DA:407,33
DA:408,33
DA:409,33
DA:410,33
DA:412,1
DA:414,1
DA:415,2
DA:416,0
DA:419,1
DA:420,1
DA:421,1
DA:422,1
DA:424,1
DA:425,1
DA:426,1
DA:428,1
DA:430,31
DA:431,30
DA:432,30
DA:434,1
DA:436,1
DA:437,2
DA:438,0
DA:440,1
DA:443,5
DA:444,3
DA:445,3
DA:446,3
DA:447,3
DA:448,3
DA:449,4
DA:450,1
DA:452,1
DA:453,2
DA:454,0
DA:456,1
DA:459,1
DA:460,1
DA:462,1
DA:464,1
DA:466,73
DA:467,72
DA:469,1
DA:471,1
DA:472,2
DA:473,0
DA:475,1
DA:477,1
DA:478,1
DA:479,1
DA:483,1
DA:484,1
DA:487,34
DA:488,33
DA:490,34
DA:491,33
DA:493,1
DA:495,1
DA:496,2
DA:497,0
DA:499,1
DA:500,1
DA:502,1
DA:503,1
DA:505,1
DA:506,1
DA:508,1
DA:510,1
DA:511,1
DA:512,1
LF:319
LH:295
end_of_record
TN:
SF:/home/runner/work/vectorfontstorm/vectorfontstorm/vectorfontstorm/buffer_data.h
FN:19,21,_ZN15vectorfontstorm11buffer_dataI10TestVertexEC2Ev
FN:24,26,_ZN15vectorfontstorm11buffer_dataI10TestVertexED2Ev
FNDA:170,_ZN15vectorfontstorm11buffer_dataI10TestVertexEC2Ev
FNDA:279,_ZN15vectorfontstorm11buffer_dataI10TestVertexED2Ev
FNF:2
FNH:2
DA:19,170
DA:21,170
DA:24,279
DA:26,279
LF:4
LH:4
end_of_record
TN:
SF:/home/runner/work/vectorfontstorm/vectorfontstorm/vectorfontstorm/cast_if_required.h
FN:7,9,_Z16cast_if_requiredIimET_RKT0_
FN:7,9,_Z16cast_if_requiredIjmET_RKT0_
FNDA:980,_Z16cast_if_requiredIimET_RKT0_
FNDA:1548,_Z16cast_if_requiredIjmET_RKT0_
FNF:2
FNH:2
DA:7,2528
DA:8,2528
LF:2
LH:2
end_of_record
TN:
SF:/home/runner/work/vectorfontstorm/vectorfontstorm/vectorfontstorm/contour.h
FN:109,117,_ZNK15vectorfontstorm7contourI10TestVertexE11get_extrudeERNS_11buffer_dataIS1_EE
FN:120,163,_ZN15vectorfontstorm7contourI10TestVertexE11get_windingEv
FN:187,198,_ZN15vectorfontstorm7contourI10TestVertexE7reverseEv
FN:50,52,_ZN15vectorfontstorm7contourI10TestVertexEC2Ev
FN:55,57,_ZN15vectorfontstorm7contourI10TestVertexED2Ev
FN:60,65,_ZN15vectorfontstorm7contourI10TestVertexE26get_second_to_last_segmentEv
FN:68,76,_ZNK15vectorfontstorm7contourI10TestVertexE11get_outlineERNS_11buffer_dataIS1_EE
FN:79,106,_ZNK15vectorfontstorm7contourI10TestVertexE11get_outlineERSt6vectorISt10shared_ptrIN3p2t5PointEESaIS7_EE
FNDA:45,_ZNK15vectorfontstorm7contourI10TestVertexE11get_extrudeERNS_11buffer_dataIS1_EE
FNDA:45,_ZN15vectorfontstorm7contourI10TestVertexE11get_windingEv
FNDA:26,_ZN15vectorfontstorm7contourI10TestVertexE7reverseEv
FNDA:45,_ZN15vectorfontstorm7contourI10TestVertexEC2Ev
FNDA:69,_ZN15vectorfontstorm7contourI10TestVertexED2Ev
FNDA:168,_ZN15vectorfontstorm7contourI10TestVertexE26get_second_to_last_segmentEv
FNDA:45,_ZNK15vectorfontstorm7contourI10TestVertexE11get_outlineERNS_11buffer_dataIS1_EE
FNDA:90,_ZNK15vectorfontstorm7contourI10TestVertexE11get_outlineERSt6vectorISt10shared_ptrIN3p2t5PointEESaIS7_EE
FNF:8
FNH:8
DA:50,45
DA:52,45
DA:55,69
DA:57,69
DA:60,168
DA:64,168
DA:68,45
DA:73,580
DA:74,535
DA:76,45
DA:79,90
DA:84,90
DA:85,90
DA:86,1160
DA:87,1070
DA:89,90
DA:91,0
DA:94,90
DA:99,90
DA:106,90
DA:109,45
DA:114,580
DA:115,535
DA:117,45
DA:120,45
DA:122,45
DA:123,0
DA:127,45
DA:128,45
DA:129,45
DA:130,0
DA:131,0
DA:132,0
DA:134,45
DA:135,535
DA:136,490
DA:137,490
DA:138,490
DA:139,490
DA:140,490
DA:141,490
DA:142,490
DA:143,192
DA:144,298
DA:145,216
DA:148,45
DA:152,22
DA:153,23
DA:154,0
DA:155,0
DA:160,23
DA:162,45
DA:163,45
DA:187,26
DA:189,26
DA:190,317
DA:191,291
DA:193,26
DA:194,0
DA:195,26
DA:196,11
DA:198,26
LF:62
LH:54
end_of_record
TN:
SF:/home/runner/work/vectorfontstorm/vectorfontstorm/vectorfontstorm/font.h
FN:103,110,_ZN15vectorfontstorm4fontI10TestVertexED2Ev
FN:113,123,_ZN15vectorfontstorm4fontI10TestVertexE4swapERS2_
FN:133,135,_ZNK15vectorfontstorm4fontI10TestVertexE10get_heightEv
FN:138,145,_ZN15vectorfontstorm4fontI10TestVertexE11get_outlineEDiRNS_11buffer_dataIS1_EE
FN:147,154,_ZN15vectorfontstorm4fontI10TestVertexE8get_fillEDiRNS_11buffer_dataIS1_EE
FN:156,163,_ZN15vectorfontstorm4fontI10TestVertexE8get_backEDiRNS_11buffer_dataIS1_EE
FN:165,172,_ZN15vectorfontstorm4fontI10TestVertexE8get_edgeEDiRNS_11buffer_dataIS1_EE
FN:174,185,_ZN15vectorfontstorm4fontI10TestVertexE20get_outline_and_fillEDiRNS_11buffer_dataIS1_EES5_S5_
FN:187,200,_ZN15vectorfontstorm4fontI10TestVertexE30get_outline_and_fill_and_edgesEDiRNS_11buffer_dataIS1_EES5_S5_S5_
FN:203,361,_ZN15vectorfontstorm4fontI10TestVertexE24load_glyph_from_freetypeEDiRNSt8__detail14_Node_iteratorISt4pairIKDiNS_5glyphIS1_EEELb0ELb0EEE
FN:51,100,_ZN15vectorfontstorm4fontI10TestVertexEC2EPKhmd
FNDA:19,_ZN15vectorfontstorm4fontI10TestVertexED2Ev
FNDA:1,_ZN15vectorfontstorm4fontI10TestVertexE4swapERS2_
FNDA:6,_ZNK15vectorfontstorm4fontI10TestVertexE10get_heightEv
FNDA:10,_ZN15vectorfontstorm4fontI10TestVertexE11get_outlineEDiRNS_11buffer_dataIS1_EE
FNDA:15,_ZN15vectorfontstorm4fontI10TestVertexE8get_fillEDiRNS_11buffer_dataIS1_EE
FNDA:2,_ZN15vectorfontstorm4fontI10TestVertexE8get_backEDiRNS_11buffer_dataIS1_EE
FNDA:1,_ZN15vectorfontstorm4fontI10TestVertexE8get_edgeEDiRNS_11buffer_dataIS1_EE
FNDA:1,_ZN15vectorfontstorm4fontI10TestVertexE20get_outline_and_fillEDiRNS_11buffer_dataIS1_EES5_S5_
FNDA:1,_ZN15vectorfontstorm4fontI10TestVertexE30get_outline_and_fill_and_edgesEDiRNS_11buffer_dataIS1_EES5_S5_S5_
FNDA:27,_ZN15vectorfontstorm4fontI10TestVertexE24load_glyph_from_freetypeEDiRNSt8__detail14_Node_iteratorISt4pairIKDiNS_5glyphIS1_EEELb0ELb0EEE
FNDA:19,_ZN15vectorfontstorm4fontI10TestVertexEC2EPKhmd
FNF:11
FNH:11
DA:51,19
DA:54,19
DA:56,19
DA:57,19
DA:58,19
DA:59,19
DA:60,19
DA:61,19
DA:62,19
DA:63,19
DA:64,19
DA:66,19
DA:69,19
DA:100,19
DA:103,19
DA:108,19
DA:109,19
DA:110,19
DA:113,1
DA:118,1
DA:119,1
DA:120,1
DA:121,1
DA:122,1
DA:123,1
DA:133,6
DA:134,6
DA:138,10
DA:141,10
DA:142,10
DA:143,10
DA:144,20
DA:147,15
DA:150,15
DA:151,15
DA:152,15
DA:153,30
DA:156,2
DA:159,2
DA:160,2
DA:161,2
DA:162,4
DA:165,1
DA:168,1
DA:169,1
DA:170,1
DA:171,2
DA:174,1
DA:179,1
DA:180,1
DA:181,1
DA:182,1
DA:183,1
DA:184,2
DA:187,1
DA:193,1
DA:194,1
DA:195,1
DA:196,1
DA:197,1
DA:198,1
DA:199,2
DA:203,27
DA:205,27
DA:209,27
DA:210,27
DA:211,27
DA:212,27
DA:213,27
DA:214,27
DA:219,27
DA:220,27
DA:221,72
DA:222,45
DA:223,45
DA:224,45
DA:225,45
DA:229,1025
DA:230,490
DA:231,490
DA:232,490
DA:236,490
DA:237,322
DA:238,322
DA:241,277
DA:242,277
DA:243,277
DA:244,277
DA:248,277
DA:249,0
DA:250,0
DA:254,0
DA:255,0
DA:256,0
DA:260,0
DA:261,0
DA:263,0
DA:265,0
DA:266,0
DA:268,0
DA:270,0
DA:272,277
DA:273,277
DA:275,322
DA:276,168
DA:277,168
DA:280,0
DA:282,168
DA:283,168
DA:284,0
DA:288,0
DA:289,168
DA:292,168
DA:293,168
DA:294,168
DA:295,168
DA:296,168
DA:297,168
DA:298,168
DA:299,168
DA:304,168
DA:305,0
DA:306,0
DA:307,0
DA:308,0
DA:310,0
DA:312,0
DA:315,168
DA:316,0
DA:320,0
DA:321,0
DA:322,0
DA:323,0
DA:324,0
DA:328,45
DA:329,45
DA:330,45
DA:331,45
DA:332,45
DA:333,45
DA:334,45
DA:335,45
DA:336,45
DA:337,45
DA:338,45
DA:339,0
DA:340,0
DA:341,0
DA:342,0
DA:344,0
DA:345,0
DA:346,0
DA:348,0
DA:349,0
DA:350,0
DA:351,0
DA:352,0
DA:353,0
DA:355,0
DA:357,45
DA:359,27
DA:360,27
LF:162
LH:121
end_of_record
TN:
SF:/home/runner/work/vectorfontstorm/vectorfontstorm/vectorfontstorm/glyph.h
FN:107,180,_ZN15vectorfontstorm5glyphI10TestVertexE12cache_bufferEv
FN:183,185,_ZNK15vectorfontstorm5glyphI10TestVertexE11get_advanceEv
FN:188,211,_ZN15vectorfontstorm5glyphI10TestVertexE10get_bufferERKNS_11buffer_dataIS1_EERS4_
FN:214,217,_ZN15vectorfontstorm5glyphI10TestVertexE11get_outlineERNS_11buffer_dataIS1_EE
FN:220,223,_ZN15vectorfontstorm5glyphI10TestVertexE8get_fillERNS_11buffer_dataIS1_EE
FN:225,228,_ZN15vectorfontstorm5glyphI10TestVertexE8get_backERNS_11buffer_dataIS1_EE
FN:230,233,_ZN15vectorfontstorm5glyphI10TestVertexE8get_edgeERNS_11buffer_dataIS1_EE
FN:52,56,_ZN15vectorfontstorm5glyphI10TestVertexEC2EDif
FN:59,61,_ZN15vectorfontstorm5glyphI10TestVertexED2Ev
FN:64,104,_ZN15vectorfontstorm5glyphI10TestVertexE15correct_windingEv
FNDA:27,_ZN15vectorfontstorm5glyphI10TestVertexE12cache_bufferEv
FNDA:32,_ZNK15vectorfontstorm5glyphI10TestVertexE11get_advanceEv
FNDA:41,_ZN15vectorfontstorm5glyphI10TestVertexE10get_bufferERKNS_11buffer_dataIS1_EERS4_
FNDA:13,_ZN15vectorfontstorm5glyphI10TestVertexE11get_outlineERNS_11buffer_dataIS1_EE
FNDA:19,_ZN15vectorfontstorm5glyphI10TestVertexE8get_fillERNS_11buffer_dataIS1_EE
FNDA:5,_ZN15vectorfontstorm5glyphI10TestVertexE8get_backERNS_11buffer_dataIS1_EE
FNDA:3,_ZN15vectorfontstorm5glyphI10TestVertexE8get_edgeERNS_11buffer_dataIS1_EE
FNDA:32,_ZN15vectorfontstorm5glyphI10TestVertexEC2EDif
FNDA:59,_ZN15vectorfontstorm5glyphI10TestVertexED2Ev
FNDA:28,_ZN15vectorfontstorm5glyphI10TestVertexE15correct_windingEv
FNF:10
FNH:10
DA:52,32
DA:53,32
DA:54,32
DA:56,32
DA:59,59
DA:61,59
DA:64,28
DA:67,28
DA:68,0
DA:70,28
DA:71,2
DA:72,2
DA:98,26
DA:99,26
DA:100,37
DA:101,26
DA:107,27
DA:116,72
DA:117,45
DA:118,45
DA:120,27
DA:122,1
DA:123,1
DA:127,26
DA:128,94
DA:129,34
DA:130,34
DA:135,34
DA:139,34
DA:140,75
DA:141,19
DA:142,11
DA:143,11
DA:147,11
DA:148,11
DA:150,34
DA:151,34
DA:157,478
DA:160,444
DA:161,444
DA:162,444
DA:163,444
DA:164,444
DA:165,444
DA:166,444
DA:170,444
DA:171,444
DA:172,444
DA:173,444
DA:174,444
DA:175,444
DA:176,444
DA:183,32
DA:184,32
DA:188,41
DA:190,41
DA:191,6
DA:193,35
DA:194,26
DA:195,26
DA:196,0
DA:200,35
DA:201,35
DA:202,35
DA:203,35
DA:205,35
DA:206,35
DA:208,1663
DA:209,1628
DA:214,13
DA:216,13
DA:217,13
DA:220,19
DA:222,19
DA:223,19
DA:225,5
DA:227,5
DA:228,5
DA:230,3
DA:232,3
DA:233,3
LF:81
LH:79
end_of_record
TN:
SF:/home/runner/work/vectorfontstorm/vectorfontstorm/vectorfontstorm/point.cpp
FN:11,15,_ZN15vectorfontstorm5pointC2ERK7vector2IfENS0_5typesE
FN:17,19,_ZN15vectorfontstorm5pointD2Ev
FN:5,9,_ZN15vectorfontstorm5pointC2EffNS0_5typesE
FNDA:3360,_ZN15vectorfontstorm5pointC2ERK7vector2IfENS0_5typesE
FNDA:15308,_ZN15vectorfontstorm5pointD2Ev
FNDA:1070,_ZN15vectorfontstorm5pointC2EffNS0_5typesE
FNF:3
FNH:3
DA:5,1070
DA:6,1070
DA:7,1070
DA:9,1070
DA:11,3360
DA:12,3360
DA:13,3360
DA:15,3360
DA:17,15308
DA:19,15308
LF:10
LH:10
end_of_record
TN:
SF:/home/runner/work/vectorfontstorm/vectorfontstorm/vectorfontstorm/poly2tri/common/shapes.cc
FN:105,109,_ZN3p2t8Triangle14ClearNeighborsEv
FN:111,113,_ZN3p2t8Triangle17ClearDelunayEdgesEv
FN:115,118,_ZN3p2t8Triangle13OppositePointERS0_RKNS_5PointE
FN:121,125,_ZN3p2t8Triangle8LegalizeERNS_5PointE
FN:128,144,_ZN3p2t8Triangle8LegalizeERNS_5PointES2_
FN:146,156,_ZN3p2t8Triangle5IndexEPKNS_5PointE
FN:158,179,_ZN3p2t8Triangle9EdgeIndexEPKNS_5PointES3_
FN:181,183,_ZN3p2t8Triangle19MarkConstrainedEdgeEi
FN:185,187,_ZN3p2t8Triangle19MarkConstrainedEdgeERNS_4EdgeE
FN:190,198,_ZN3p2t8Triangle19MarkConstrainedEdgeEPNS_5PointES2_
FN:201,211,_ZN3p2t8Triangle7PointCWERKNS_5PointE
FN:214,224,_ZN3p2t8Triangle8PointCCWERKNS_5PointE
FN:227,234,_ZN3p2t8Triangle10NeighborCWERKNS_5PointE
FN:237,244,_ZN3p2t8Triangle11NeighborCCWERKNS_5PointE
FN:246,253,_ZN3p2t8Triangle21GetConstrainedEdgeCCWERKNS_5PointE
FN:255,262,_ZN3p2t8Triangle20GetConstrainedEdgeCWERKNS_5PointE
FN:264,272,_ZN3p2t8Triangle21SetConstrainedEdgeCCWERKNS_5PointEb
FN:274,282,_ZN3p2t8Triangle20SetConstrainedEdgeCWERKNS_5PointEb
FN:284,291,_ZN3p2t8Triangle17GetDelunayEdgeCCWERKNS_5PointE
FN:293,300,_ZN3p2t8Triangle16GetDelunayEdgeCWERKNS_5PointE
FN:302,310,_ZN3p2t8Triangle17SetDelunayEdgeCCWERKNS_5PointEb
FN:312,320,_ZN3p2t8Triangle16SetDelunayEdgeCWERKNS_5PointEb
FN:323,330,_ZN3p2t8Triangle14NeighborAcrossERKNS_5PointE
FN:332,336,_ZN3p2t8Triangle10DebugPrintEv
FN:36,50,_ZN3p2t8TriangleC2ERNS_5PointES2_S2_
FN:53,63,_ZN3p2t8Triangle12MarkNeighborEPNS_5PointES2_PS0_
FN:66,77,_ZN3p2t8Triangle12MarkNeighborERS0_
FN:82,93,_ZN3p2t8Triangle5ClearEv
FN:95,103,_ZN3p2t8Triangle13ClearNeighborEPKS0_
FNDA:940,_ZN3p2t8Triangle14ClearNeighborsEv
FNDA:0,_ZN3p2t8Triangle17ClearDelunayEdgesEv
FNDA:3190,_ZN3p2t8Triangle13OppositePointERS0_RKNS_5PointE
FNDA:0,_ZN3p2t8Triangle8LegalizeERNS_5PointE
FNDA:940,_ZN3p2t8Triangle8LegalizeERNS_5PointES2_
FNDA:3166,_ZN3p2t8Triangle5IndexEPKNS_5PointE
FNDA:1878,_ZN3p2t8Triangle9EdgeIndexEPKNS_5PointES3_
FNDA:956,_ZN3p2t8Triangle19MarkConstrainedEdgeEi
FNDA:0,_ZN3p2t8Triangle19MarkConstrainedEdgeERNS_4EdgeE
FNDA:380,_ZN3p2t8Triangle19MarkConstrainedEdgeEPNS_5PointES2_
FNDA:11954,_ZN3p2t8Triangle7PointCWERKNS_5PointE
FNDA:2866,_ZN3p2t8Triangle8PointCCWERKNS_5PointE
FNDA:940,_ZN3p2t8Triangle10NeighborCWERKNS_5PointE
FNDA:1450,_ZN3p2t8Triangle11NeighborCCWERKNS_5PointE
FNDA:940,_ZN3p2t8Triangle21GetConstrainedEdgeCCWERKNS_5PointE
FNDA:1024,_ZN3p2t8Triangle20GetConstrainedEdgeCWERKNS_5PointE
FNDA:940,_ZN3p2t8Triangle21SetConstrainedEdgeCCWERKNS_5PointEb
FNDA:940,_ZN3p2t8Triangle20SetConstrainedEdgeCWERKNS_5PointEb
FNDA:940,_ZN3p2t8Triangle17GetDelunayEdgeCCWERKNS_5PointE
FNDA:940,_ZN3p2t8Triangle16GetDelunayEdgeCWERKNS_5PointE
FNDA:940,_ZN3p2t8Triangle17SetDelunayEdgeCCWERKNS_5PointEb
FNDA:940,_ZN3p2t8Triangle16SetDelunayEdgeCWERKNS_5PointEb
FNDA:24,_ZN3p2t8Triangle14NeighborAcrossERKNS_5PointE
FNDA:0,_ZN3p2t8Triangle10DebugPrintEv
FNDA:1658,_ZN3p2t8TriangleC2ERNS_5PointES2_S2_
FNDA:3816,_ZN3p2t8Triangle12MarkNeighborEPNS_5PointES2_PS0_
FNDA:3816,_ZN3p2t8Triangle12MarkNeighborERS0_
FNDA:0,_ZN3p2t8Triangle5ClearEv
FNDA:0,_ZN3p2t8Triangle13ClearNeighborEPKS0_
FNF:29
FNH:23
DA:36,1658
DA:37,1658
DA:38,1658
DA:39,1658
DA:40,1658
DA:41,1658
DA:42,1658
DA:43,1658
DA:44,1658
DA:45,1658
DA:46,1658
DA:47,1658
DA:48,1658
DA:49,1658
DA:50,1658
DA:53,3816
DA:54,3816
DA:55,374
DA:56,3442
DA:57,1798
DA:58,1644
DA:59,1644
DA:61,0
DA:63,3816
DA:66,3816
DA:67,3816
DA:68,2344
DA:69,2344
DA:70,1472
DA:71,498
DA:72,498
DA:73,974
DA:74,974
DA:75,974
DA:77,3816
DA:82,0
DA:83,0
DA:84,0
DA:85,0
DA:86,0
DA:89,0
DA:90,0
DA:91,0
DA:92,0
DA:93,0
DA:95,0
DA:96,0
DA:97,0
DA:98,0
DA:99,0
DA:101,0
DA:103,0
DA:105,940
DA:106,940
DA:107,940
DA:108,940
DA:109,940
DA:111,0
DA:112,0
DA:113,0
DA:115,3190
DA:116,3190
DA:117,3190
DA:121,0
DA:122,0
DA:123,0
DA:124,0
DA:125,0
DA:128,940
DA:129,940
DA:130,378
DA:131,378
DA:132,378
DA:133,562
DA:134,380
DA:135,380
DA:136,380
DA:137,182
DA:138,182
DA:139,182
DA:140,182
DA:142,0
DA:144,940
DA:146,3166
DA:147,3166
DA:148,322
DA:149,2844
DA:150,1338
DA:151,1506
DA:152,1506
DA:154,0
DA:158,1878
DA:159,1878
DA:160,194
DA:161,60
DA:162,134
DA:163,134
DA:165,1684
DA:166,624
DA:167,2
DA:168,622
DA:169,622
DA:171,1060
DA:172,138
DA:173,74
DA:174,64
DA:175,64
DA:178,922
DA:181,956
DA:182,956
DA:183,956
DA:185,0
DA:186,0
DA:187,0
DA:190,380
DA:191,380
DA:192,28
DA:193,352
DA:194,56
DA:195,296
DA:196,296
DA:198,380
DA:201,11954
DA:202,11954
DA:203,5478
DA:204,6476
DA:205,2594
DA:206,3882
DA:207,3882
DA:209,0
DA:214,2866
DA:215,2866
DA:216,1772
DA:217,1094
DA:218,490
DA:219,604
DA:220,604
DA:222,0
DA:227,940
DA:228,940
DA:229,378
DA:230,562
DA:231,380
DA:233,182
DA:237,1450
DA:238,1450
DA:239,600
DA:240,850
DA:241,634
DA:243,216
DA:246,940
DA:247,940
DA:248,378
DA:249,562
DA:250,380
DA:252,182
DA:255,1024
DA:256,1024
DA:257,424
DA:258,600
DA:259,400
DA:261,200
DA:264,940
DA:265,940
DA:266,380
DA:267,560
DA:268,182
DA:270,378
DA:272,940
DA:274,940
DA:275,940
DA:276,182
DA:277,758
DA:278,378
DA:280,380
DA:282,940
DA:284,940
DA:285,940
DA:286,378
DA:287,562
DA:288,380
DA:290,182
DA:293,940
DA:294,940
DA:295,378
DA:296,562
DA:297,380
DA:299,182
DA:302,940
DA:303,940
DA:304,380
DA:305,560
DA:306,182
DA:308,378
DA:310,940
DA:312,940
DA:313,940
DA:314,182
DA:315,758
DA:316,378
DA:318,380
DA:320,940
DA:323,24
DA:324,24
DA:325,18
DA:326,6
DA:327,4
DA:329,2
DA:332,0
DA:333,0
DA:334,0
DA:335,0
DA:336,0
LF:213
LH:175
end_of_record
TN:
SF:/home/runner/work/vectorfontstorm/vectorfontstorm/vectorfontstorm/poly2tri/common/shapes.h
FN:121,139,_ZN3p2t4EdgeC2ERNS_5PointES2_
FN:212,222,_ZN3p2t3cmpESt10shared_ptrINS_5PointEES2_
FN:239,241,_ZN3p2teqERKNS_5PointES2_
FN:269,271,_ZN3p2t8Triangle8GetPointEi
FN:273,275,_ZN3p2t8Triangle11GetNeighborEi
FN:277,279,_ZN3p2t8Triangle8ContainsEPKNS_5PointE
FN:285,287,_ZN3p2t8Triangle8ContainsEPKNS_5PointES3_
FN:289,291,_ZN3p2t8Triangle10IsInteriorEv
FN:293,295,_ZN3p2t8Triangle10IsInteriorEb
FN:61,61,_ZN3p2t5PointC2Eff
FNDA:980,_ZN3p2t4EdgeC2ERNS_5PointES2_
FNDA:3856,_ZN3p2t3cmpESt10shared_ptrINS_5PointEES2_
FNDA:138,_ZN3p2teqERKNS_5PointES2_
FNDA:6078,_ZN3p2t8Triangle8GetPointEi
FNDA:14812,_ZN3p2t8Triangle11GetNeighborEi
FNDA:12026,_ZN3p2t8Triangle8ContainsEPKNS_5PointE
FNDA:6262,_ZN3p2t8Triangle8ContainsEPKNS_5PointES3_
FNDA:1752,_ZN3p2t8Triangle10IsInteriorEv
FNDA:888,_ZN3p2t8Triangle10IsInteriorEb
FNDA:1138,_ZN3p2t5PointC2Eff
FNF:10
FNH:10
DA:61,1138
DA:121,980
DA:122,980
DA:123,980
DA:124,980
DA:125,310
DA:126,310
DA:127,670
DA:128,362
DA:129,172
DA:130,172
DA:131,190
DA:133,0
DA:134,0
DA:138,980
DA:139,980
DA:212,3856
DA:213,3856
DA:214,2070
DA:215,1786
DA:217,772
DA:218,332
DA:221,1454
DA:239,138
DA:240,138
DA:269,6078
DA:270,6078
DA:273,14812
DA:274,14812
DA:277,12026
DA:278,12026
DA:285,6262
DA:286,6262
DA:289,1752
DA:290,1752
DA:293,888
DA:294,888
DA:295,888
LF:38
LH:36
end_of_record
TN:
SF:/home/runner/work/vectorfontstorm/vectorfontstorm/vectorfontstorm/poly2tri/common/utils.h
FN:111,122,_ZN3p2t10InScanAreaERKNS_5PointES2_S2_S2_
FN:67,77,_ZN3p2t8Orient2dERKNS_5PointES2_S2_
FNDA:24,_ZN3p2t10InScanAreaERKNS_5PointES2_S2_S2_
FNDA:1534,_ZN3p2t8Orient2dERKNS_5PointES2_S2_
FNF:2
FNH:2
DA:67,1534
DA:68,1534
DA:69,1534
DA:70,1534
DA:71,1534
DA:72,4
DA:73,1530
DA:74,268
DA:76,1262
DA:111,24
DA:112,24
DA:113,24
DA:114,0
DA:117,24
DA:118,24
DA:119,0
DA:121,24
LF:17
LH:15
end_of_record
TN:
SF:/home/runner/work/vectorfontstorm/vectorfontstorm/vectorfontstorm/poly2tri/sweep/advancing_front.cc
FN:102,103,_ZN3p2t14AdvancingFrontD2Ev
FN:35,39,_ZN3p2t14AdvancingFrontC2ERNS_4NodeES2_
FN:41,60,_ZN3p2t14AdvancingFront10LocateNodeEf
FN:62,65,_ZN3p2t14AdvancingFront14FindSearchNodeEv
FN:67,100,_ZN3p2t14AdvancingFront11LocatePointEPKNS_5PointE
FNDA:68,_ZN3p2t14AdvancingFrontD2Ev
FNDA:68,_ZN3p2t14AdvancingFrontC2ERNS_4NodeES2_
FNDA:912,_ZN3p2t14AdvancingFront10LocateNodeEf
FNDA:2708,_ZN3p2t14AdvancingFront14FindSearchNodeEv
FNDA:2708,_ZN3p2t14AdvancingFront11LocatePointEPKNS_5PointE
FNF:5
FNH:5
DA:35,68
DA:36,68
DA:37,68
DA:38,68
DA:39,68
DA:41,912
DA:42,912
DA:44,912
DA:45,580
DA:46,580
DA:47,220
DA:48,220
DA:52,1894
DA:53,1894
DA:54,692
DA:55,692
DA:59,0
DA:62,2708
DA:64,2708
DA:67,2708
DA:68,2708
DA:69,2708
DA:70,2708
DA:72,2708
DA:73,760
DA:75,698
DA:76,342
DA:77,356
DA:78,356
DA:80,0
DA:83,1948
DA:84,1250
DA:85,1250
DA:86,1176
DA:90,856
DA:91,856
DA:92,772
DA:96,2708
DA:97,2708
DA:99,2708
DA:102,68
DA:103,68
LF:42
LH:40
end_of_record
TN:
SF:/home/runner/work/vectorfontstorm/vectorfontstorm/vectorfontstorm/poly2tri/sweep/advancing_front.h
FN:51,57,_ZN3p2t4NodeC2ERNS_5PointE
FN:59,65,_ZN3p2t4NodeC2ERNS_5PointERNS_8TriangleE
FN:94,96,_ZN3p2t14AdvancingFront4headEv
FNDA:980,_ZN3p2t4NodeC2ERNS_5PointE
FNDA:136,_ZN3p2t4NodeC2ERNS_5PointERNS_8TriangleE
FNDA:136,_ZN3p2t14AdvancingFront4headEv
FNF:3
FNH:3
DA:51,980
DA:52,980
DA:53,980
DA:54,980
DA:55,980
DA:56,980
DA:57,980
DA:59,136
DA:60,136
DA:61,136
DA:62,136
DA:63,136
DA:64,136
DA:65,136
DA:94,136
DA:95,136
LF:16
LH:16
end_of_record
TN:
SF:/home/runner/work/vectorfontstorm/vectorfontstorm/vectorfontstorm/poly2tri/sweep/sweep.cc
FN:102,154,_ZN3p2t5Sweep9EdgeEventERNS_12SweepContextERNS_5PointES4_PNS_8TriangleES4_
FN:156,168,_ZN3p2t5Sweep20IsEdgeSideOfTriangleERNS_8TriangleERNS_5PointES4_
FN:170,189,_ZN3p2t5Sweep16NewFrontTriangleERNS_12SweepContextERNS_5PointERNS_4NodeE
FN:191,210,_ZN3p2t5Sweep4FillERNS_12SweepContextERNS_4NodeE
FN:212,245,_ZN3p2t5Sweep18FillAdvancingFrontERNS_12SweepContextERNS_4NodeE
FN:248,270,_ZNK3p2t5Sweep18LargeHole_DontFillEPKNS_4NodeE
FN:272,275,_ZNK3p2t5Sweep21AngleExceeds90DegreesEPKNS_5PointES3_S3_
FN:277,280,_ZNK3p2t5Sweep37AngleExceedsPlus90DegreesOrIsNegativeEPKNS_5PointES3_S3_
FN:282,300,_ZNK3p2t5Sweep5AngleEPKNS_5PointES3_S3_
FN:302,306,_ZNK3p2t5Sweep10BasinAngleERKNS_4NodeE
FN:308,322,_ZNK3p2t5Sweep9HoleAngleERKNS_4NodeE
FN:324,384,_ZN3p2t5Sweep8LegalizeERNS_12SweepContextERNS_8TriangleE
FN:386,421,_ZNK3p2t5Sweep8IncircleERKNS_5PointES3_S3_S3_
FN:40,47,_ZN3p2t5Sweep11TriangulateERNS_12SweepContextE
FN:423,477,_ZNK3p2t5Sweep18RotateTrianglePairERNS_8TriangleERNS_5PointES2_S4_
FN:479,511,_ZN3p2t5Sweep9FillBasinERNS_12SweepContextERNS_4NodeE
FN:49,57,_ZN3p2t5Sweep11SweepPointsERNS_12SweepContextE
FN:513,545,_ZN3p2t5Sweep12FillBasinReqERNS_12SweepContextEPNS_4NodeE
FN:547,561,_ZN3p2t5Sweep9IsShallowERNS_12SweepContextERNS_4NodeE
FN:563,569,_ZN3p2t5Sweep13FillEdgeEventERNS_12SweepContextEPNS_4EdgeEPNS_4NodeE
FN:571,580,_ZN3p2t5Sweep23FillRightAboveEdgeEventERNS_12SweepContextEPNS_4EdgeEPNS_4NodeE
FN:582,594,_ZN3p2t5Sweep23FillRightBelowEdgeEventERNS_12SweepContextEPNS_4EdgeERNS_4NodeE
FN:59,69,_ZN3p2t5Sweep19FinalizationPolygonERNS_12SweepContextE
FN:596,611,_ZN3p2t5Sweep25FillRightConcaveEdgeEventERNS_12SweepContextEPNS_4EdgeERNS_4NodeE
FN:613,628,_ZN3p2t5Sweep24FillRightConvexEdgeEventERNS_12SweepContextEPNS_4EdgeERNS_4NodeE
FN:630,639,_ZN3p2t5Sweep22FillLeftAboveEdgeEventERNS_12SweepContextEPNS_4EdgeEPNS_4NodeE
FN:641,653,_ZN3p2t5Sweep22FillLeftBelowEdgeEventERNS_12SweepContextEPNS_4EdgeERNS_4NodeE
FN:655,670,_ZN3p2t5Sweep23FillLeftConvexEdgeEventERNS_12SweepContextEPNS_4EdgeERNS_4NodeE
FN:672,687,_ZN3p2t5Sweep24FillLeftConcaveEdgeEventERNS_12SweepContextEPNS_4EdgeERNS_4NodeE
FN:689,718,_ZN3p2t5Sweep13FlipEdgeEventERNS_12SweepContextERNS_5PointES4_PNS_8TriangleES4_
FN:71,85,_ZN3p2t5Sweep10PointEventERNS_12SweepContextERNS_5PointE
FN:720,737,_ZN3p2t5Sweep16NextFlipTriangleERNS_12SweepContextEiRNS_8TriangleES4_RNS_5PointES6_
FN:739,749,_ZN3p2t5Sweep13NextFlipPointERNS_5PointES2_RNS_8TriangleES2_
FN:751,770,_ZN3p2t5Sweep17FlipScanEdgeEventERNS_12SweepContextERNS_5PointES4_RNS_8TriangleES6_S4_
FN:772,779,_ZN3p2t5SweepD2Ev
FN:87,100,_ZN3p2t5Sweep9EdgeEventERNS_12SweepContextEPNS_4EdgeEPNS_4NodeE
FNDA:898,_ZN3p2t5Sweep9EdgeEventERNS_12SweepContextERNS_5PointES4_PNS_8TriangleES4_
FNDA:1878,_ZN3p2t5Sweep20IsEdgeSideOfTriangleERNS_8TriangleERNS_5PointES4_
FNDA:912,_ZN3p2t5Sweep16NewFrontTriangleERNS_12SweepContextERNS_5PointERNS_4NodeE
FNDA:678,_ZN3p2t5Sweep4FillERNS_12SweepContextERNS_4NodeE
FNDA:912,_ZN3p2t5Sweep18FillAdvancingFrontERNS_12SweepContextERNS_4NodeE
FNDA:1726,_ZNK3p2t5Sweep18LargeHole_DontFillEPKNS_4NodeE
FNDA:1726,_ZNK3p2t5Sweep21AngleExceeds90DegreesEPKNS_5PointES3_S3_
FNDA:2558,_ZNK3p2t5Sweep37AngleExceedsPlus90DegreesOrIsNegativeEPKNS_5PointES3_S3_
FNDA:4284,_ZNK3p2t5Sweep5AngleEPKNS_5PointES3_S3_
FNDA:654,_ZNK3p2t5Sweep10BasinAngleERKNS_4NodeE
FNDA:0,_ZNK3p2t5Sweep9HoleAngleERKNS_4NodeE
FNDA:2530,_ZN3p2t5Sweep8LegalizeERNS_12SweepContextERNS_8TriangleE
FNDA:2324,_ZNK3p2t5Sweep8IncircleERKNS_5PointES3_S3_S3_
FNDA:68,_ZN3p2t5Sweep11TriangulateERNS_12SweepContextE
FNDA:470,_ZNK3p2t5Sweep18RotateTrianglePairERNS_8TriangleERNS_5PointES2_S4_
FNDA:340,_ZN3p2t5Sweep9FillBasinERNS_12SweepContextERNS_4NodeE
FNDA:68,_ZN3p2t5Sweep11SweepPointsERNS_12SweepContextE
FNDA:50,_ZN3p2t5Sweep12FillBasinReqERNS_12SweepContextEPNS_4NodeE
FNDA:50,_ZN3p2t5Sweep9IsShallowERNS_12SweepContextERNS_4NodeE
FNDA:404,_ZN3p2t5Sweep13FillEdgeEventERNS_12SweepContextEPNS_4EdgeEPNS_4NodeE
FNDA:20,_ZN3p2t5Sweep23FillRightAboveEdgeEventERNS_12SweepContextEPNS_4EdgeEPNS_4NodeE
FNDA:10,_ZN3p2t5Sweep23FillRightBelowEdgeEventERNS_12SweepContextEPNS_4EdgeERNS_4NodeE
FNDA:68,_ZN3p2t5Sweep19FinalizationPolygonERNS_12SweepContextE
FNDA:30,_ZN3p2t5Sweep25FillRightConcaveEdgeEventERNS_12SweepContextEPNS_4EdgeERNS_4NodeE
FNDA:0,_ZN3p2t5Sweep24FillRightConvexEdgeEventERNS_12SweepContextEPNS_4EdgeERNS_4NodeE
FNDA:384,_ZN3p2t5Sweep22FillLeftAboveEdgeEventERNS_12SweepContextEPNS_4EdgeEPNS_4NodeE
FNDA:26,_ZN3p2t5Sweep22FillLeftBelowEdgeEventERNS_12SweepContextEPNS_4EdgeERNS_4NodeE
FNDA:0,_ZN3p2t5Sweep23FillLeftConvexEdgeEventERNS_12SweepContextEPNS_4EdgeERNS_4NodeE
FNDA:46,_ZN3p2t5Sweep24FillLeftConcaveEdgeEventERNS_12SweepContextEPNS_4EdgeERNS_4NodeE
FNDA:24,_ZN3p2t5Sweep13FlipEdgeEventERNS_12SweepContextERNS_5PointES4_PNS_8TriangleES4_
FNDA:912,_ZN3p2t5Sweep10PointEventERNS_12SweepContextERNS_5PointE
FNDA:0,_ZN3p2t5Sweep16NextFlipTriangleERNS_12SweepContextEiRNS_8TriangleES4_RNS_5PointES6_
FNDA:0,_ZN3p2t5Sweep13NextFlipPointERNS_5PointES2_RNS_8TriangleES2_
FNDA:0,_ZN3p2t5Sweep17FlipScanEdgeEventERNS_12SweepContextERNS_5PointES4_RNS_8TriangleES6_S4_
FNDA:68,_ZN3p2t5SweepD2Ev
FNDA:980,_ZN3p2t5Sweep9EdgeEventERNS_12SweepContextEPNS_4EdgeEPNS_4NodeE
FNF:36
FNH:30
DA:40,68
DA:41,68
DA:42,68
DA:44,68
DA:46,68
DA:47,68
DA:49,68
DA:50,980
DA:51,912
DA:52,912
DA:53,1892
DA:54,980
DA:57,68
DA:59,68
DA:61,68
DA:62,68
DA:63,84
DA:64,16
DA:68,68
DA:69,68
DA:71,912
DA:72,912
DA:73,912
DA:77,912
DA:78,342
DA:83,912
DA:84,912
DA:87,980
DA:88,980
DA:89,980
DA:91,980
DA:92,576
DA:98,404
DA:99,404
DA:102,898
DA:103,898
DA:104,380
DA:107,518
DA:108,518
DA:109,518
DA:110,0
DA:111,0
DA:114,0
DA:115,0
DA:116,0
DA:118,0
DA:119,0
DA:121,0
DA:124,518
DA:125,518
DA:126,518
DA:127,0
DA:128,0
DA:131,0
DA:132,0
DA:133,0
DA:135,0
DA:136,0
DA:138,0
DA:141,518
DA:144,494
DA:145,494
DA:147,0
DA:149,494
DA:152,24
DA:156,1878
DA:157,1878
DA:159,1878
DA:160,956
DA:161,956
DA:162,956
DA:163,332
DA:165,956
DA:167,922
DA:170,912
DA:171,912
DA:173,912
DA:174,912
DA:176,912
DA:177,912
DA:179,912
DA:180,912
DA:181,912
DA:182,912
DA:184,912
DA:185,698
DA:188,912
DA:191,678
DA:192,678
DA:196,678
DA:197,678
DA:199,678
DA:202,678
DA:203,678
DA:206,678
DA:207,552
DA:210,678
DA:212,912
DA:215,912
DA:217,1030
DA:219,772
DA:220,654
DA:222,118
DA:223,118
DA:227,912
DA:229,1046
DA:231,954
DA:232,820
DA:234,134
DA:235,134
DA:239,912
DA:240,654
DA:241,654
DA:242,340
DA:245,912
DA:248,1726
DA:250,1726
DA:251,1726
DA:252,1726
DA:253,214
DA:257,1512
DA:259,1512
DA:260,26
DA:263,1486
DA:265,1486
DA:266,12
DA:269,1474
DA:272,1726
DA:273,1726
DA:274,1726
DA:277,2558
DA:278,2558
DA:279,2558
DA:282,4284
DA:291,4284
DA:292,4284
DA:293,4284
DA:294,4284
DA:295,4284
DA:296,4284
DA:297,4284
DA:298,4284
DA:299,4284
DA:302,654
DA:303,654
DA:304,654
DA:305,654
DA:308,0
DA:317,0
DA:318,0
DA:319,0
DA:320,0
DA:321,0
DA:324,2530
DA:327,8952
DA:328,6868
DA:329,948
DA:332,5920
DA:334,5920
DA:335,3166
DA:336,3166
DA:337,3166
DA:341,3166
DA:342,842
DA:343,842
DA:346,2324
DA:348,2324
DA:350,446
DA:351,446
DA:354,446
DA:360,446
DA:361,446
DA:362,406
DA:365,446
DA:366,446
DA:367,380
DA:374,446
DA:375,446
DA:379,446
DA:383,2084
DA:386,2324
DA:387,2324
DA:388,2324
DA:389,2324
DA:390,2324
DA:392,2324
DA:393,2324
DA:394,2324
DA:396,2324
DA:397,674
DA:400,1650
DA:401,1650
DA:403,1650
DA:404,1650
DA:405,1650
DA:407,1650
DA:408,326
DA:411,1324
DA:412,1324
DA:414,1324
DA:415,1324
DA:416,1324
DA:418,1324
DA:420,1324
DA:423,470
DA:425,470
DA:426,470
DA:427,470
DA:428,470
DA:431,470
DA:432,470
DA:433,470
DA:434,470
DA:437,470
DA:438,470
DA:439,470
DA:440,470
DA:442,470
DA:443,470
DA:446,470
DA:447,470
DA:448,470
DA:449,470
DA:452,470
DA:453,470
DA:454,470
DA:455,470
DA:462,470
DA:463,470
DA:464,470
DA:465,176
DA:467,470
DA:468,136
DA:470,470
DA:471,380
DA:473,470
DA:474,386
DA:476,470
DA:477,470
DA:479,340
DA:480,340
DA:481,178
DA:483,162
DA:487,340
DA:488,340
DA:489,818
DA:490,478
DA:492,340
DA:494,80
DA:497,260
DA:498,260
DA:499,336
DA:500,76
DA:502,260
DA:504,210
DA:507,50
DA:508,50
DA:510,50
DA:513,50
DA:515,50
DA:516,42
DA:519,8
DA:521,8
DA:522,6
DA:523,2
DA:524,0
DA:525,0
DA:526,0
DA:528,0
DA:529,2
DA:530,2
DA:531,2
DA:532,2
DA:534,0
DA:537,0
DA:538,0
DA:540,0
DA:544,0
DA:547,50
DA:550,50
DA:551,4
DA:553,46
DA:557,50
DA:558,42
DA:560,8
DA:563,404
DA:564,404
DA:565,20
DA:567,384
DA:569,404
DA:571,20
DA:572,30
DA:574,10
DA:575,10
DA:577,0
DA:580,20
DA:582,10
DA:583,10
DA:584,10
DA:586,10
DA:589,0
DA:591,0
DA:594,10
DA:596,30
DA:597,30
DA:598,30
DA:600,20
DA:602,20
DA:604,20
DA:611,30
DA:613,0
DA:615,0
DA:617,0
DA:621,0
DA:623,0
DA:628,0
DA:630,384
DA:631,414
DA:633,30
DA:634,26
DA:636,4
DA:639,384
DA:641,26
DA:642,26
DA:643,26
DA:645,26
DA:648,0
DA:650,0
DA:653,26
DA:655,0
DA:657,0
DA:659,0
DA:663,0
DA:665,0
DA:670,0
DA:672,46
DA:673,46
DA:674,46
DA:676,20
DA:678,20
DA:680,20
DA:687,46
DA:689,24
DA:690,24
DA:691,24
DA:693,24
DA:695,24
DA:696,24
DA:697,24
DA:699,24
DA:700,24
DA:701,24
DA:702,24
DA:703,24
DA:704,24
DA:709,0
DA:710,0
DA:711,0
DA:714,0
DA:715,0
DA:716,0
DA:718,24
DA:720,0
DA:721,0
DA:723,0
DA:724,0
DA:725,0
DA:726,0
DA:727,0
DA:731,0
DA:733,0
DA:734,0
DA:735,0
DA:736,0
DA:739,0
DA:740,0
DA:741,0
DA:743,0
DA:744,0
DA:746,0
DA:748,0
DA:751,0
DA:753,0
DA:754,0
DA:756,0
DA:758,0
DA:767,0
DA:768,0
DA:770,0
DA:772,68
DA:775,980
DA:776,912
DA:779,68
LF:393
LH:311
end_of_record
TN:
SF:/home/runner/work/vectorfontstorm/vectorfontstorm/vectorfontstorm/poly2tri/sweep/sweep.h
FNF:0
FNH:0
LF:0
LH:0
end_of_record
TN:
SF:/home/runner/work/vectorfontstorm/vectorfontstorm/vectorfontstorm/poly2tri/sweep/sweep_context.cc
FN:111,113,_ZN3p2t12SweepContext8GetPointEm
FN:115,117,_ZN3p2t12SweepContext8AddToMapEPNS_8TriangleE
FN:119,122,_ZN3p2t12SweepContext10LocateNodeERKNS_5PointE
FN:124,141,_ZN3p2t12SweepContext20CreateAdvancingFrontEv
FN:143,145,_ZN3p2t12SweepContext10RemoveNodeEPNS_4NodeE
FN:147,156,_ZN3p2t12SweepContext18MapTriangleToNodesERNS_8TriangleE
FN:158,160,_ZN3p2t12SweepContext13RemoveFromMapEPNS_8TriangleE
FN:162,180,_ZN3p2t12SweepContext9MeshCleanERNS_8TriangleE
FN:182,196,_ZN3p2t12SweepContextD2Ev
FN:37,46,_ZN3p2t12SweepContextC2ERKSt6vectorISt10shared_ptrINS_5PointEESaIS4_EE
FN:48,53,_ZN3p2t12SweepContext7AddHoleERKSt6vectorISt10shared_ptrINS_5PointEESaIS4_EE
FN:55,57,_ZN3p2t12SweepContext8AddPointEPNS_5PointE
FN:59,61,_ZN3p2t12SweepContext12GetTrianglesEv
FN:63,65,_ZN3p2t12SweepContext6GetMapB5cxx11Ev
FN:67,96,_ZN3p2t12SweepContext17InitTriangulationEv
FN:98,109,_ZN3p2t12SweepContext9InitEdgesERKSt6vectorISt10shared_ptrINS_5PointEESaIS4_EE
FNDA:912,_ZN3p2t12SweepContext8GetPointEm
FNDA:1590,_ZN3p2t12SweepContext8AddToMapEPNS_8TriangleE
FNDA:912,_ZN3p2t12SweepContext10LocateNodeERKNS_5PointE
FNDA:68,_ZN3p2t12SweepContext20CreateAdvancingFrontEv
FNDA:0,_ZN3p2t12SweepContext10RemoveNodeEPNS_4NodeE
FNDA:2084,_ZN3p2t12SweepContext18MapTriangleToNodesERNS_8TriangleE
FNDA:0,_ZN3p2t12SweepContext13RemoveFromMapEPNS_8TriangleE
FNDA:68,_ZN3p2t12SweepContext9MeshCleanERNS_8TriangleE
FNDA:68,_ZN3p2t12SweepContextD2Ev
FNDA:68,_ZN3p2t12SweepContextC2ERKSt6vectorISt10shared_ptrINS_5PointEESaIS4_EE
FNDA:22,_ZN3p2t12SweepContext7AddHoleERKSt6vectorISt10shared_ptrINS_5PointEESaIS4_EE
FNDA:0,_ZN3p2t12SweepContext8AddPointEPNS_5PointE
FNDA:0,_ZN3p2t12SweepContext12GetTrianglesEv
FNDA:0,_ZN3p2t12SweepContext6GetMapB5cxx11Ev
FNDA:68,_ZN3p2t12SweepContext17InitTriangulationEv
FNDA:90,_ZN3p2t12SweepContext9InitEdgesERKSt6vectorISt10shared_ptrINS_5PointEESaIS4_EE
FNF:16
FNH:11
DA:37,68
DA:38,68
DA:39,68
DA:40,68
DA:41,68
DA:42,68
DA:43,68
DA:44,68
DA:45,68
DA:46,68
DA:48,22
DA:49,22
DA:50,306
DA:51,284
DA:53,22
DA:55,0
DA:56,0
DA:57,0
DA:59,0
DA:60,0
DA:63,0
DA:64,0
DA:67,68
DA:68,68
DA:69,68
DA:72,1048
DA:73,980
DA:74,980
DA:75,218
DA:77,980
DA:78,82
DA:80,980
DA:81,72
DA:83,980
DA:84,188
DA:88,68
DA:89,68
DA:90,68
DA:91,68
DA:94,68
DA:96,68
DA:98,90
DA:99,90
DA:100,1070
DA:101,980
DA:107,980
DA:109,90
DA:111,912
DA:112,912
DA:115,1590
DA:116,1590
DA:117,1590
DA:119,912
DA:121,912
DA:124,68
DA:126,68
DA:128,68
DA:130,68
DA:131,68
DA:132,68
DA:133,68
DA:137,68
DA:138,68
DA:139,68
DA:140,68
DA:141,68
DA:143,0
DA:144,0
DA:145,0
DA:147,2084
DA:148,8336
DA:149,6252
DA:150,2708
DA:151,2708
DA:152,2708
DA:156,2084
DA:158,0
DA:159,0
DA:160,0
DA:162,68
DA:163,68
DA:164,68
DA:166,1820
DA:167,1752
DA:168,1752
DA:170,1752
DA:171,888
DA:172,888
DA:173,3552
DA:174,2664
DA:175,1684
DA:180,68
DA:182,68
DA:184,68
DA:185,68
DA:186,68
DA:187,68
DA:188,68
DA:189,68
DA:190,1726
DA:191,1658
DA:193,1048
DA:194,980
DA:196,68
LF:104
LH:91
end_of_record
TN:
SF:/home/runner/work/vectorfontstorm/vectorfontstorm/vectorfontstorm/poly2tri/sweep/sweep_context.h
FN:106,107,_ZN3p2t12SweepContext5BasinC2Ev
FN:122,123,_ZN3p2t12SweepContext9EdgeEventC2Ev
FN:151,153,_ZNK3p2t12SweepContext5frontEv
FN:155,157,_ZNK3p2t12SweepContext11point_countEv
FNDA:68,_ZN3p2t12SweepContext5BasinC2Ev
FNDA:68,_ZN3p2t12SweepContext9EdgeEventC2Ev
FNDA:136,_ZNK3p2t12SweepContext5frontEv
FNDA:980,_ZNK3p2t12SweepContext11point_countEv
FNF:4
FNH:4
DA:106,68
DA:107,68
DA:122,68
DA:123,68
DA:151,136
DA:152,136
DA:155,980
DA:156,980
LF:8
LH:8
end_of_record
TN:
SF:/home/runner/work/vectorfontstorm/vectorfontstorm/vectorfontstorm/segment.h
FN:101,152,_ZNK15vectorfontstorm7segmentI10TestVertexE11get_outlineERSt6vectorISt10shared_ptrIN3p2t5PointEESaIS7_EE
FN:155,161,_ZNK15vectorfontstorm7segmentI10TestVertexE17get_outline_firstERSt6vectorISt10shared_ptrIN3p2t5PointEESaIS7_EE
FN:164,223,_ZNK15vectorfontstorm7segmentI10TestVertexE11get_extrudeERNS_11buffer_dataIS1_EE
FN:226,235,_ZNK15vectorfontstorm7segmentI10TestVertexE15subdivide_conicERSt6vectorIS2_SaIS2_EE
FN:237,244,_ZNK15vectorfontstorm7segmentI10TestVertexE15subdivide_cubicERSt6vectorIS2_SaIS2_EE
FN:247,250,_ZN15vectorfontstorm7segmentI10TestVertexE7reverseEv
FN:46,48,_ZN15vectorfontstorm7segmentI10TestVertexEC2Ev
FN:51,53,_ZN15vectorfontstorm7segmentI10TestVertexED2Ev
FN:56,61,_ZN15vectorfontstorm7segmentI10TestVertexE24get_second_to_last_pointEv
FN:64,98,_ZNK15vectorfontstorm7segmentI10TestVertexE11get_outlineERNS_11buffer_dataIS1_EE
FNDA:1406,_ZNK15vectorfontstorm7segmentI10TestVertexE11get_outlineERSt6vectorISt10shared_ptrIN3p2t5PointEESaIS7_EE
FNDA:90,_ZNK15vectorfontstorm7segmentI10TestVertexE17get_outline_firstERSt6vectorISt10shared_ptrIN3p2t5PointEESaIS7_EE
FNDA:703,_ZNK15vectorfontstorm7segmentI10TestVertexE11get_extrudeERNS_11buffer_dataIS1_EE
FNDA:672,_ZNK15vectorfontstorm7segmentI10TestVertexE15subdivide_conicERSt6vectorIS2_SaIS2_EE
FNDA:0,_ZNK15vectorfontstorm7segmentI10TestVertexE15subdivide_cubicERSt6vectorIS2_SaIS2_EE
FNDA:291,_ZN15vectorfontstorm7segmentI10TestVertexE7reverseEv
FNDA:1207,_ZN15vectorfontstorm7segmentI10TestVertexEC2Ev
FNDA:2275,_ZN15vectorfontstorm7segmentI10TestVertexED2Ev
FNDA:445,_ZN15vectorfontstorm7segmentI10TestVertexE24get_second_to_last_pointEv
FNDA:703,_ZNK15vectorfontstorm7segmentI10TestVertexE11get_outlineERNS_11buffer_dataIS1_EE
FNF:10
FNH:9
DA:46,1207
DA:48,1207
DA:51,2275
DA:53,2275
DA:56,445
DA:60,445
DA:64,703
DA:69,703
DA:70,0
DA:71,0
DA:72,0
DA:73,535
DA:74,535
DA:75,535
DA:76,535
DA:77,535
DA:78,535
DA:79,168
DA:81,168
DA:82,168
DA:83,336
DA:84,168
DA:86,168
DA:87,168
DA:88,0
DA:90,0
DA:91,0
DA:92,0
DA:93,0
DA:95,0
DA:96,0
DA:101,1406
DA:106,1406
DA:107,0
DA:108,0
DA:109,0
DA:110,1070
DA:115,1070
DA:116,1460
DA:117,390
DA:121,90
DA:125,980
DA:126,980
DA:127,336
DA:132,336
DA:133,336
DA:134,672
DA:135,336
DA:137,336
DA:138,336
DA:139,0
DA:144,0
DA:145,0
DA:146,0
DA:147,0
DA:149,0
DA:150,0
DA:155,90
DA:160,90
DA:161,90
DA:164,703
DA:169,703
DA:170,0
DA:171,0
DA:172,0
DA:173,535
DA:175,535
DA:178,535
DA:179,535
DA:180,535
DA:181,535
DA:182,535
DA:183,535
DA:184,535
DA:185,535
DA:186,535
DA:187,535
DA:188,535
DA:189,535
DA:203,535
DA:204,168
DA:206,168
DA:207,168
DA:208,336
DA:209,168
DA:211,168
DA:212,168
DA:213,0
DA:215,0
DA:216,0
DA:217,0
DA:218,0
DA:220,0
DA:221,0
DA:226,672
DA:229,672
DA:230,672
DA:231,672
DA:232,672
DA:235,672
DA:237,0
DA:240,0
DA:241,0
DA:242,0
DA:243,0
DA:244,0
DA:247,291
DA:249,291
DA:250,291
LF:109
LH:73
end_of_record
TN:
SF:/usr/include/boost/range/iterator_range_core.hpp
FN:215,219,_ZN5boost21iterator_range_detail19iterator_range_baseIN9__gnu_cxx17__normal_iteratorIPjSt6vectorIjSaIjEEEENS_9iterators27incrementable_traversal_tagEEC2IS8_EET_SD_
FN:222,225,_ZNK5boost21iterator_range_detail19iterator_range_baseIN9__gnu_cxx17__normal_iteratorIPjSt6vectorIjSaIjEEEENS_9iterators27incrementable_traversal_tagEE5beginEv
FN:227,230,_ZNK5boost21iterator_range_detail19iterator_range_baseIN9__gnu_cxx17__normal_iteratorIPjSt6vectorIjSaIjEEEENS_9iterators27incrementable_traversal_tagEE3endEv
FN:312,315,_ZN5boost21iterator_range_detail19iterator_range_baseIN9__gnu_cxx17__normal_iteratorIPjSt6vectorIjSaIjEEEENS_9iterators27bidirectional_traversal_tagEEC2IS8_EET_SD_
FN:381,384,_ZN5boost21iterator_range_detail19iterator_range_baseIN9__gnu_cxx17__normal_iteratorIPjSt6vectorIjSaIjEEEENS_9iterators27random_access_traversal_tagEEC2IS8_EET_SD_
FN:483,486,_ZN5boost14iterator_rangeIN9__gnu_cxx17__normal_iteratorIPjSt6vectorIjSaIjEEEEEC2IS7_EET_SA_
FN:756,759,_ZN5boost19make_iterator_rangeIN9__gnu_cxx17__normal_iteratorIPjSt6vectorIjSaIjEEEEEENS_14iterator_rangeIT_EES9_S9_
FNDA:35,_ZN5boost21iterator_range_detail19iterator_range_baseIN9__gnu_cxx17__normal_iteratorIPjSt6vectorIjSaIjEEEENS_9iterators27incrementable_traversal_tagEEC2IS8_EET_SD_
FNDA:35,_ZNK5boost21iterator_range_detail19iterator_range_baseIN9__gnu_cxx17__normal_iteratorIPjSt6vectorIjSaIjEEEENS_9iterators27incrementable_traversal_tagEE5beginEv
FNDA:35,_ZNK5boost21iterator_range_detail19iterator_range_baseIN9__gnu_cxx17__normal_iteratorIPjSt6vectorIjSaIjEEEENS_9iterators27incrementable_traversal_tagEE3endEv
FNDA:35,_ZN5boost21iterator_range_detail19iterator_range_baseIN9__gnu_cxx17__normal_iteratorIPjSt6vectorIjSaIjEEEENS_9iterators27bidirectional_traversal_tagEEC2IS8_EET_SD_
FNDA:35,_ZN5boost21iterator_range_detail19iterator_range_baseIN9__gnu_cxx17__normal_iteratorIPjSt6vectorIjSaIjEEEENS_9iterators27random_access_traversal_tagEEC2IS8_EET_SD_
FNDA:35,_ZN5boost14iterator_rangeIN9__gnu_cxx17__normal_iteratorIPjSt6vectorIjSaIjEEEEEC2IS7_EET_SA_
FNDA:35,_ZN5boost19make_iterator_rangeIN9__gnu_cxx17__normal_iteratorIPjSt6vectorIjSaIjEEEEEENS_14iterator_rangeIT_EES9_S9_
FNF:7
FNH:7
DA:215,35
DA:216,35
DA:217,35
DA:219,35
DA:222,35
DA:224,35
DA:227,35
DA:229,35
DA:312,35
DA:313,35
DA:315,35
DA:381,35
DA:382,35
DA:384,35
DA:483,35
DA:484,35
DA:486,35
DA:756,35
DA:758,35
LF:19
LH:19
end_of_record
TN:
SF:/usr/include/c++/13/bit
FN:195,237,_ZSt13__countl_zeroImEiT_
FN:365,369,_ZSt11__bit_widthImEiT_
FNDA:1393,_ZSt13__countl_zeroImEiT_
FNDA:1393,_ZSt11__bit_widthImEiT_
FNF:2
FNH:2
DA:195,1393
DA:198,1393
DA:200,1393
DA:201,0
DA:203,1393
DA:204,1393
DA:205,1393
DA:214,1393
DA:215,1393
DA:365,1393
DA:367,1393
DA:368,1393
LF:12
LH:11
end_of_record
TN:
SF:/usr/include/c++/13/bits/alloc_traits.h
FNF:0
FNH:0
DA:482,10618
DA:517,9957
DA:538,38590
DA:542,39842
DA:562,17079
DA:574,15459
DA:588,1405
DA:722,0
DA:755,14
DA:759,14
DA:792,1
DA:948,6405
DA:949,6405
LF:13
LH:12
end_of_record
TN:
SF:/usr/include/c++/13/bits/allocated_ptr.h
FN:53,55,_ZNSt15__allocated_ptrISaISt10_List_nodeIPN3p2t8TriangleEEEEC2ERS5_PS4_
FN:71,75,_ZNSt15__allocated_ptrISaISt10_List_nodeIPN3p2t8TriangleEEEED2Ev
FN:79,83,_ZNSt15__allocated_ptrISaISt10_List_nodeIPN3p2t8TriangleEEEEaSEDn
FNDA:1658,_ZNSt15__allocated_ptrISaISt10_List_nodeIPN3p2t8TriangleEEEEC2ERS5_PS4_
FNDA:1658,_ZNSt15__allocated_ptrISaISt10_List_nodeIPN3p2t8TriangleEEEED2Ev
FNDA:1658,_ZNSt15__allocated_ptrISaISt10_List_nodeIPN3p2t8TriangleEEEEaSEDn
FNF:3
FNH:3
DA:53,1658
DA:54,1658
DA:55,1658
DA:71,1658
DA:73,1658
DA:74,0
DA:75,1658
DA:79,1658
DA:81,1658
DA:82,1658
LF:10
LH:9
end_of_record
TN:
SF:/usr/include/c++/13/bits/allocator.h
FNF:0
FNH:0
DA:163,3892
DA:168,2893
DA:178,30
DA:184,1529
DA:223,0
LF:5
LH:4
end_of_record
TN:
SF:/usr/include/c++/13/bits/basic_string.h
FN:1071,1072,_ZNKSt7__cxx1112basic_stringIDiSt11char_traitsIDiESaIDiEE4sizeEv
FN:1084,1085,_ZNKSt7__cxx1112basic_stringIDiSt11char_traitsIDiESaIDiEE8max_sizeEv
FN:124,137,_ZNSt7__cxx1112basic_stringIDiSt11char_traitsIDiESaIDiEE11_S_allocateERS3_m
FN:188,189,_ZNSt7__cxx1112basic_stringIDiSt11char_traitsIDiESaIDiEE12_Alloc_hiderC2EPDiRKS3_
FN:212,213,_ZNSt7__cxx1112basic_stringIDiSt11char_traitsIDiESaIDiEE7_M_dataEPDi
FN:217,218,_ZNSt7__cxx1112basic_stringIDiSt11char_traitsIDiESaIDiEE9_M_lengthEm
FN:222,223,_ZNKSt7__cxx1112basic_stringIDiSt11char_traitsIDiESaIDiEE7_M_dataEv
FN:227,234,_ZNSt7__cxx1112basic_stringIDiSt11char_traitsIDiESaIDiEE13_M_local_dataEv
FN:238,245,_ZNKSt7__cxx1112basic_stringIDiSt11char_traitsIDiESaIDiEE13_M_local_dataEv
FN:249,250,_ZNSt7__cxx1112basic_stringIDiSt11char_traitsIDiESaIDiEE11_M_capacityEm
FN:254,258,_ZNSt7__cxx1112basic_stringIDiSt11char_traitsIDiESaIDiEE13_M_set_lengthEm
FN:262,271,_ZNKSt7__cxx1112basic_stringIDiSt11char_traitsIDiESaIDiEE11_M_is_localEv
FN:280,284,_ZNSt7__cxx1112basic_stringIDiSt11char_traitsIDiESaIDiEE10_M_disposeEv
FN:288,289,_ZNSt7__cxx1112basic_stringIDiSt11char_traitsIDiESaIDiEE10_M_destroyEm
FN:336,337,_ZNSt7__cxx1112basic_stringIDiSt11char_traitsIDiESaIDiEE16_M_get_allocatorEv
FN:341,342,_ZNKSt7__cxx1112basic_stringIDiSt11char_traitsIDiESaIDiEE16_M_get_allocatorEv
FN:425,431,_ZNSt7__cxx1112basic_stringIDiSt11char_traitsIDiESaIDiEE7_S_copyEPDiPKDim
FN:4487,4488,_ZNSt8literals15string_literalsli1sB5cxx11EPKcm
FN:482,484,_ZNSt7__cxx1112basic_stringIDiSt11char_traitsIDiESaIDiEE13_S_copy_charsEPDiPKDiS7_
FN:641,650,_ZNSt7__cxx1112basic_stringIcSt11char_traitsIcESaIcEEC2IS3_EEPKcRKS3_
FN:706,708,_ZNSt7__cxx1112basic_stringIDiSt11char_traitsIDiESaIDiEEC2ESt16initializer_listIDiERKS3_
FN:803,804,_ZNSt7__cxx1112basic_stringIDiSt11char_traitsIDiESaIDiEED2Ev
FN:955,956,_ZNSt7__cxx1112basic_stringIDiSt11char_traitsIDiESaIDiEE5beginEv
FN:973,974,_ZNSt7__cxx1112basic_stringIDiSt11char_traitsIDiESaIDiEE3endEv
FNDA:4,_ZNKSt7__cxx1112basic_stringIDiSt11char_traitsIDiESaIDiEE4sizeEv
FNDA:2,_ZNKSt7__cxx1112basic_stringIDiSt11char_traitsIDiESaIDiEE8max_sizeEv
FNDA:2,_ZNSt7__cxx1112basic_stringIDiSt11char_traitsIDiESaIDiEE11_S_allocateERS3_m
FNDA:4,_ZNSt7__cxx1112basic_stringIDiSt11char_traitsIDiESaIDiEE12_Alloc_hiderC2EPDiRKS3_
FNDA:2,_ZNSt7__cxx1112basic_stringIDiSt11char_traitsIDiESaIDiEE7_M_dataEPDi
FNDA:4,_ZNSt7__cxx1112basic_stringIDiSt11char_traitsIDiESaIDiEE9_M_lengthEm
FNDA:22,_ZNKSt7__cxx1112basic_stringIDiSt11char_traitsIDiESaIDiEE7_M_dataEv
FNDA:4,_ZNSt7__cxx1112basic_stringIDiSt11char_traitsIDiESaIDiEE13_M_local_dataEv
FNDA:4,_ZNKSt7__cxx1112basic_stringIDiSt11char_traitsIDiESaIDiEE13_M_local_dataEv
FNDA:2,_ZNSt7__cxx1112basic_stringIDiSt11char_traitsIDiESaIDiEE11_M_capacityEm
FNDA:4,_ZNSt7__cxx1112basic_stringIDiSt11char_traitsIDiESaIDiEE13_M_set_lengthEm
FNDA:4,_ZNKSt7__cxx1112basic_stringIDiSt11char_traitsIDiESaIDiEE11_M_is_localEv
FNDA:4,_ZNSt7__cxx1112basic_stringIDiSt11char_traitsIDiESaIDiEE10_M_disposeEv
FNDA:2,_ZNSt7__cxx1112basic_stringIDiSt11char_traitsIDiESaIDiEE10_M_destroyEm
FNDA:4,_ZNSt7__cxx1112basic_stringIDiSt11char_traitsIDiESaIDiEE16_M_get_allocatorEv
FNDA:2,_ZNKSt7__cxx1112basic_stringIDiSt11char_traitsIDiESaIDiEE16_M_get_allocatorEv
FNDA:4,_ZNSt7__cxx1112basic_stringIDiSt11char_traitsIDiESaIDiEE7_S_copyEPDiPKDim
FNDA:25,_ZNSt8literals15string_literalsli1sB5cxx11EPKcm
FNDA:4,_ZNSt7__cxx1112basic_stringIDiSt11char_traitsIDiESaIDiEE13_S_copy_charsEPDiPKDiS7_
FNDA:576,_ZNSt7__cxx1112basic_stringIcSt11char_traitsIcESaIcEEC2IS3_EEPKcRKS3_
FNDA:4,_ZNSt7__cxx1112basic_stringIDiSt11char_traitsIDiESaIDiEEC2ESt16initializer_listIDiERKS3_
FNDA:4,_ZNSt7__cxx1112basic_stringIDiSt11char_traitsIDiESaIDiEED2Ev
FNDA:4,_ZNSt7__cxx1112basic_stringIDiSt11char_traitsIDiESaIDiEE5beginEv
FNDA:4,_ZNSt7__cxx1112basic_stringIDiSt11char_traitsIDiESaIDiEE3endEv
FNF:24
FNH:24
DA:124,2
DA:126,2
DA:136,2
DA:188,4
DA:189,4
DA:212,2
DA:213,2
DA:217,4
DA:218,4
DA:222,22
DA:223,22
DA:227,4
DA:230,4
DA:238,4
DA:241,4
DA:249,2
DA:250,2
DA:254,4
DA:256,4
DA:257,4
DA:258,4
DA:262,4
DA:264,4
DA:266,2
DA:267,0
DA:268,2
DA:270,2
DA:280,4
DA:282,4
DA:283,2
DA:284,4
DA:288,2
DA:289,2
DA:336,4
DA:337,4
DA:341,2
DA:342,2
DA:355,564
DA:425,4
DA:427,4
DA:428,1
DA:430,3
DA:431,4
DA:482,4
DA:484,4
DA:641,576
DA:642,576
DA:645,576
DA:646,0
DA:648,576
DA:649,576
DA:650,576
DA:706,4
DA:707,4
DA:708,4
DA:803,4
DA:804,4
DA:955,4
DA:956,4
DA:973,4
DA:974,4
DA:1071,4
DA:1072,4
DA:1084,2
DA:1085,4
DA:4487,25
DA:4488,75
LF:67
LH:65
end_of_record
TN:
SF:/usr/include/c++/13/bits/basic_string.tcc
FN:138,160,_ZNSt7__cxx1112basic_stringIDiSt11char_traitsIDiESaIDiEE9_M_createERmm
FN:221,252,_ZNSt7__cxx1112basic_stringIDiSt11char_traitsIDiESaIDiEE12_M_constructIPKDiEEvT_S8_St20forward_iterator_tag
FN:221,252,_ZNSt7__cxx1112basic_stringIcSt11char_traitsIcESaIcEE12_M_constructIPKcEEvT_S8_St20forward_iterator_tag
FN:239,239,_ZZNSt7__cxx1112basic_stringIDiSt11char_traitsIDiESaIDiEE12_M_constructIPKDiEEvT_S8_St20forward_iterator_tagEN6_GuardC2EPS4_
FN:239,239,_ZZNSt7__cxx1112basic_stringIcSt11char_traitsIcESaIcEE12_M_constructIPKcEEvT_S8_St20forward_iterator_tagEN6_GuardC2EPS4_
FN:242,242,_ZZNSt7__cxx1112basic_stringIDiSt11char_traitsIDiESaIDiEE12_M_constructIPKDiEEvT_S8_St20forward_iterator_tagEN6_GuardD2Ev
FN:242,242,_ZZNSt7__cxx1112basic_stringIcSt11char_traitsIcESaIcEE12_M_constructIPKcEEvT_S8_St20forward_iterator_tagEN6_GuardD2Ev
FNDA:2,_ZNSt7__cxx1112basic_stringIDiSt11char_traitsIDiESaIDiEE9_M_createERmm
FNDA:4,_ZNSt7__cxx1112basic_stringIDiSt11char_traitsIDiESaIDiEE12_M_constructIPKDiEEvT_S8_St20forward_iterator_tag
FNDA:2035,_ZNSt7__cxx1112basic_stringIcSt11char_traitsIcESaIcEE12_M_constructIPKcEEvT_S8_St20forward_iterator_tag
FNDA:4,_ZZNSt7__cxx1112basic_stringIDiSt11char_traitsIDiESaIDiEE12_M_constructIPKDiEEvT_S8_St20forward_iterator_tagEN6_GuardC2EPS4_
FNDA:2035,_ZZNSt7__cxx1112basic_stringIcSt11char_traitsIcESaIcEE12_M_constructIPKcEEvT_S8_St20forward_iterator_tagEN6_GuardC2EPS4_
FNDA:4,_ZZNSt7__cxx1112basic_stringIDiSt11char_traitsIDiESaIDiEE12_M_constructIPKDiEEvT_S8_St20forward_iterator_tagEN6_GuardD2Ev
FNDA:2035,_ZZNSt7__cxx1112basic_stringIcSt11char_traitsIcESaIcEE12_M_constructIPKcEEvT_S8_St20forward_iterator_tagEN6_GuardD2Ev
FNF:7
FNH:7
DA:138,2
DA:143,2
DA:144,0
DA:149,2
DA:151,0
DA:153,0
DA:154,0
DA:159,2
DA:221,2039
DA:225,2039
DA:227,2039
DA:229,1475
DA:230,1475
DA:239,2039
DA:242,2039
DA:245,2039
DA:247,2039
DA:249,2039
DA:251,2039
DA:252,2039
LF:20
LH:16
end_of_record
TN:
SF:/usr/include/c++/13/bits/char_traits.h
FN:136,137,_ZN9__gnu_cxx11char_traitsIcE2eqERKcS3_
FN:199,206,_ZN9__gnu_cxx11char_traitsIcE6lengthEPKc
FN:393,400,_ZNSt11char_traitsIcE6lengthEPKc
FN:899,907,_ZNSt11char_traitsIDiE6assignERDiRKDi
FN:960,970,_ZNSt11char_traitsIDiE4copyEPDiPKDim
FNDA:0,_ZN9__gnu_cxx11char_traitsIcE2eqERKcS3_
FNDA:0,_ZN9__gnu_cxx11char_traitsIcE6lengthEPKc
FNDA:577,_ZNSt11char_traitsIcE6lengthEPKc
FNDA:5,_ZNSt11char_traitsIDiE6assignERDiRKDi
FNDA:3,_ZNSt11char_traitsIDiE4copyEPDiPKDim
FNF:5
FNH:3
DA:136,0
DA:137,0
DA:199,0
DA:202,0
DA:203,0
DA:204,0
DA:205,0
DA:393,577
DA:396,577
DA:397,0
DA:399,577
DA:899,5
DA:906,5
DA:907,5
DA:960,3
DA:962,3
DA:963,0
DA:969,3
LF:18
LH:9
end_of_record
TN:
SF:/usr/include/c++/13/bits/cpp_type_traits.h
FN:607,608,_ZSt12__miter_baseIN9__gnu_cxx17__normal_iteratorIPK10TestVertexSt6vectorIS2_SaIS2_EEEEET_S9_
FN:607,608,_ZSt12__miter_baseIN9__gnu_cxx17__normal_iteratorIPKN15vectorfontstorm5pointESt6vectorIS3_SaIS3_EEEEET_SA_
FN:607,608,_ZSt12__miter_baseIN9__gnu_cxx17__normal_iteratorIPKjSt6vectorIjSaIjEEEEET_S8_
FN:607,608,_ZSt12__miter_baseIN9__gnu_cxx17__normal_iteratorIPSt10shared_ptrIN3p2t5PointEESt6vectorIS5_SaIS5_EEEEET_SB_
FN:607,608,_ZSt12__miter_baseIP10TestVertexET_S2_
FN:607,608,_ZSt12__miter_baseIPN15vectorfontstorm5pointEET_S3_
FN:607,608,_ZSt12__miter_baseIPjET_S1_
FNDA:72,_ZSt12__miter_baseIN9__gnu_cxx17__normal_iteratorIPK10TestVertexSt6vectorIS2_SaIS2_EEEEET_S9_
FNDA:520,_ZSt12__miter_baseIN9__gnu_cxx17__normal_iteratorIPKN15vectorfontstorm5pointESt6vectorIS3_SaIS3_EEEEET_SA_
FNDA:360,_ZSt12__miter_baseIN9__gnu_cxx17__normal_iteratorIPKjSt6vectorIjSaIjEEEEET_S8_
FNDA:588,_ZSt12__miter_baseIN9__gnu_cxx17__normal_iteratorIPSt10shared_ptrIN3p2t5PointEESt6vectorIS5_SaIS5_EEEEET_SB_
FNDA:0,_ZSt12__miter_baseIP10TestVertexET_S2_
FNDA:0,_ZSt12__miter_baseIPN15vectorfontstorm5pointEET_S3_
FNDA:70,_ZSt12__miter_baseIPjET_S1_
FNF:7
FNH:5
DA:607,1610
DA:608,1610
LF:2
LH:2
end_of_record
TN:
SF:/usr/include/c++/13/bits/functional_hash.h
FN:148,148,_ZNKSt4hashIDiEclEDi
FNDA:55,_ZNKSt4hashIDiEclEDi
FNF:1
FNH:1
DA:148,55
LF:1
LH:1
end_of_record
TN:
SF:/usr/include/c++/13/bits/hashtable.h
FN:1595,1610,_ZNSt10_HashtableIDiSt4pairIKDiN15vectorfontstorm5glyphI10TestVertexEEESaIS6_ENSt8__detail10_Select1stESt8equal_toIDiESt4hashIDiENS8_18_Mod_range_hashingENS8_20_Default_ranged_hashENS8_20_Prime_rehash_policyENS8_17_Hashtable_traitsILb0ELb0ELb1EEEED2Ev
FN:1617,1657,_ZNSt10_HashtableIDiSt4pairIKDiN15vectorfontstorm5glyphI10TestVertexEEESaIS6_ENSt8__detail10_Select1stESt8equal_toIDiESt4hashIDiENS8_18_Mod_range_hashingENS8_20_Default_ranged_hashENS8_20_Prime_rehash_policyENS8_17_Hashtable_traitsILb0ELb0ELb1EEEE4swapERSJ_
FN:1664,1680,_ZNSt10_HashtableIDiSt4pairIKDiN15vectorfontstorm5glyphI10TestVertexEEESaIS6_ENSt8__detail10_Select1stESt8equal_toIDiESt4hashIDiENS8_18_Mod_range_hashingENS8_20_Default_ranged_hashENS8_20_Prime_rehash_policyENS8_17_Hashtable_traitsILb0ELb0ELb1EEEE4findERS1_
FN:1948,1970,_ZNKSt10_HashtableIDiSt4pairIKDiN15vectorfontstorm5glyphI10TestVertexEEESaIS6_ENSt8__detail10_Select1stESt8equal_toIDiESt4hashIDiENS8_18_Mod_range_hashingENS8_20_Default_ranged_hashENS8_20_Prime_rehash_policyENS8_17_Hashtable_traitsILb0ELb0ELb1EEEE19_M_find_before_nodeEmRS1_m
FN:2007,2033,_ZNSt10_HashtableIDiSt4pairIKDiN15vectorfontstorm5glyphI10TestVertexEEESaIS6_ENSt8__detail10_Select1stESt8equal_toIDiESt4hashIDiENS8_18_Mod_range_hashingENS8_20_Default_ranged_hashENS8_20_Prime_rehash_policyENS8_17_Hashtable_traitsILb0ELb0ELb1EEEE22_M_insert_bucket_beginEmPNS8_10_Hash_nodeIS6_Lb0EEE
FN:2081,2108,_ZNSt10_HashtableIDiSt4pairIKDiN15vectorfontstorm5glyphI10TestVertexEEESaIS6_ENSt8__detail10_Select1stESt8equal_toIDiESt4hashIDiENS8_18_Mod_range_hashingENS8_20_Default_ranged_hashENS8_20_Prime_rehash_policyENS8_17_Hashtable_traitsILb0ELb0ELb1EEEE10_M_emplaceIJRS1_S5_EEES0_INS8_14_Node_iteratorIS6_Lb0ELb0EEEbESt17integral_constantIbLb1EEDpOT_
FN:2166,2189,_ZNSt10_HashtableIDiSt4pairIKDiN15vectorfontstorm5glyphI10TestVertexEEESaIS6_ENSt8__detail10_Select1stESt8equal_toIDiESt4hashIDiENS8_18_Mod_range_hashingENS8_20_Default_ranged_hashENS8_20_Prime_rehash_policyENS8_17_Hashtable_traitsILb0ELb0ELb1EEEE21_M_insert_unique_nodeEmmPNS8_10_Hash_nodeIS6_Lb0EEEm
FN:2520,2529,_ZNSt10_HashtableIDiSt4pairIKDiN15vectorfontstorm5glyphI10TestVertexEEESaIS6_ENSt8__detail10_Select1stESt8equal_toIDiESt4hashIDiENS8_18_Mod_range_hashingENS8_20_Default_ranged_hashENS8_20_Prime_rehash_policyENS8_17_Hashtable_traitsILb0ELb0ELb1EEEE5clearEv
FN:2559,2574,_ZNSt10_HashtableIDiSt4pairIKDiN15vectorfontstorm5glyphI10TestVertexEEESaIS6_ENSt8__detail10_Select1stESt8equal_toIDiESt4hashIDiENS8_18_Mod_range_hashingENS8_20_Default_ranged_hashENS8_20_Prime_rehash_policyENS8_17_Hashtable_traitsILb0ELb0ELb1EEEE9_M_rehashEmRKm
FN:2582,2616,_ZNSt10_HashtableIDiSt4pairIKDiN15vectorfontstorm5glyphI10TestVertexEEESaIS6_ENSt8__detail10_Select1stESt8equal_toIDiESt4hashIDiENS8_18_Mod_range_hashingENS8_20_Default_ranged_hashENS8_20_Prime_rehash_policyENS8_17_Hashtable_traitsILb0ELb0ELb1EEEE13_M_rehash_auxEmSt17integral_constantIbLb1EE
FN:305,308,_ZNSt10_HashtableIDiSt4pairIKDiN15vectorfontstorm5glyphI10TestVertexEEESaIS6_ENSt8__detail10_Select1stESt8equal_toIDiESt4hashIDiENS8_18_Mod_range_hashingENS8_20_Default_ranged_hashENS8_20_Prime_rehash_policyENS8_17_Hashtable_traitsILb0ELb0ELb1EEEE12_Scoped_nodeC2IJRS1_S5_EEEPNS8_16_Hashtable_allocISaINS8_10_Hash_nodeIS6_Lb0EEEEEEDpOT_
FN:311,311,_ZNSt10_HashtableIDiSt4pairIKDiN15vectorfontstorm5glyphI10TestVertexEEESaIS6_ENSt8__detail10_Select1stESt8equal_toIDiESt4hashIDiENS8_18_Mod_range_hashingENS8_20_Default_ranged_hashENS8_20_Prime_rehash_policyENS8_17_Hashtable_traitsILb0ELb0ELb1EEEE12_Scoped_nodeD2Ev
FN:402,406,_ZNSt10_HashtableIDiSt4pairIKDiN15vectorfontstorm5glyphI10TestVertexEEESaIS6_ENSt8__detail10_Select1stESt8equal_toIDiESt4hashIDiENS8_18_Mod_range_hashingENS8_20_Default_ranged_hashENS8_20_Prime_rehash_policyENS8_17_Hashtable_traitsILb0ELb0ELb1EEEE16_M_update_bbeginEv
FN:416,417,_ZNKSt10_HashtableIDiSt4pairIKDiN15vectorfontstorm5glyphI10TestVertexEEESaIS6_ENSt8__detail10_Select1stESt8equal_toIDiESt4hashIDiENS8_18_Mod_range_hashingENS8_20_Default_ranged_hashENS8_20_Prime_rehash_policyENS8_17_Hashtable_traitsILb0ELb0ELb1EEEE21_M_uses_single_bucketEPPNS8_15_Hash_node_baseE
FN:420,421,_ZNKSt10_HashtableIDiSt4pairIKDiN15vectorfontstorm5glyphI10TestVertexEEESaIS6_ENSt8__detail10_Select1stESt8equal_toIDiESt4hashIDiENS8_18_Mod_range_hashingENS8_20_Default_ranged_hashENS8_20_Prime_rehash_policyENS8_17_Hashtable_traitsILb0ELb0ELb1EEEE21_M_uses_single_bucketEv
FN:424,428,_ZNSt10_HashtableIDiSt4pairIKDiN15vectorfontstorm5glyphI10TestVertexEEESaIS6_ENSt8__detail10_Select1stESt8equal_toIDiESt4hashIDiENS8_18_Mod_range_hashingENS8_20_Default_ranged_hashENS8_20_Prime_rehash_policyENS8_17_Hashtable_traitsILb0ELb0ELb1EEEE22__small_size_thresholdEv
FN:434,443,_ZNSt10_HashtableIDiSt4pairIKDiN15vectorfontstorm5glyphI10TestVertexEEESaIS6_ENSt8__detail10_Select1stESt8equal_toIDiESt4hashIDiENS8_18_Mod_range_hashingENS8_20_Default_ranged_hashENS8_20_Prime_rehash_policyENS8_17_Hashtable_traitsILb0ELb0ELb1EEEE19_M_allocate_bucketsEm
FN:446,452,_ZNSt10_HashtableIDiSt4pairIKDiN15vectorfontstorm5glyphI10TestVertexEEESaIS6_ENSt8__detail10_Select1stESt8equal_toIDiESt4hashIDiENS8_18_Mod_range_hashingENS8_20_Default_ranged_hashENS8_20_Prime_rehash_policyENS8_17_Hashtable_traitsILb0ELb0ELb1EEEE21_M_deallocate_bucketsEPPNS8_15_Hash_node_baseEm
FN:455,456,_ZNSt10_HashtableIDiSt4pairIKDiN15vectorfontstorm5glyphI10TestVertexEEESaIS6_ENSt8__detail10_Select1stESt8equal_toIDiESt4hashIDiENS8_18_Mod_range_hashingENS8_20_Default_ranged_hashENS8_20_Prime_rehash_policyENS8_17_Hashtable_traitsILb0ELb0ELb1EEEE21_M_deallocate_bucketsEv
FN:464,465,_ZNKSt10_HashtableIDiSt4pairIKDiN15vectorfontstorm5glyphI10TestVertexEEESaIS6_ENSt8__detail10_Select1stESt8equal_toIDiESt4hashIDiENS8_18_Mod_range_hashingENS8_20_Default_ranged_hashENS8_20_Prime_rehash_policyENS8_17_Hashtable_traitsILb0ELb0ELb1EEEE8_M_beginEv
FN:530,530,_ZNSt10_HashtableIDiSt4pairIKDiN15vectorfontstorm5glyphI10TestVertexEEESaIS6_ENSt8__detail10_Select1stESt8equal_toIDiESt4hashIDiENS8_18_Mod_range_hashingENS8_20_Default_ranged_hashENS8_20_Prime_rehash_policyENS8_17_Hashtable_traitsILb0ELb0ELb1EEEEC2Ev
FN:623,624,_ZNSt10_HashtableIDiSt4pairIKDiN15vectorfontstorm5glyphI10TestVertexEEESaIS6_ENSt8__detail10_Select1stESt8equal_toIDiESt4hashIDiENS8_18_Mod_range_hashingENS8_20_Default_ranged_hashENS8_20_Prime_rehash_policyENS8_17_Hashtable_traitsILb0ELb0ELb1EEEE5beginEv
FN:631,632,_ZNSt10_HashtableIDiSt4pairIKDiN15vectorfontstorm5glyphI10TestVertexEEESaIS6_ENSt8__detail10_Select1stESt8equal_toIDiESt4hashIDiENS8_18_Mod_range_hashingENS8_20_Default_ranged_hashENS8_20_Prime_rehash_policyENS8_17_Hashtable_traitsILb0ELb0ELb1EEEE3endEv
FN:647,648,_ZNKSt10_HashtableIDiSt4pairIKDiN15vectorfontstorm5glyphI10TestVertexEEESaIS6_ENSt8__detail10_Select1stESt8equal_toIDiESt4hashIDiENS8_18_Mod_range_hashingENS8_20_Default_ranged_hashENS8_20_Prime_rehash_policyENS8_17_Hashtable_traitsILb0ELb0ELb1EEEE4sizeEv
FN:792,793,_ZNKSt10_HashtableIDiSt4pairIKDiN15vectorfontstorm5glyphI10TestVertexEEESaIS6_ENSt8__detail10_Select1stESt8equal_toIDiESt4hashIDiENS8_18_Mod_range_hashingENS8_20_Default_ranged_hashENS8_20_Prime_rehash_policyENS8_17_Hashtable_traitsILb0ELb0ELb1EEEE15_M_bucket_indexERKNS8_16_Hash_node_valueIS6_Lb0EEE
FN:796,797,_ZNKSt10_HashtableIDiSt4pairIKDiN15vectorfontstorm5glyphI10TestVertexEEESaIS6_ENSt8__detail10_Select1stESt8equal_toIDiESt4hashIDiENS8_18_Mod_range_hashingENS8_20_Default_ranged_hashENS8_20_Prime_rehash_policyENS8_17_Hashtable_traitsILb0ELb0ELb1EEEE15_M_bucket_indexEm
FN:812,819,_ZNKSt10_HashtableIDiSt4pairIKDiN15vectorfontstorm5glyphI10TestVertexEEESaIS6_ENSt8__detail10_Select1stESt8equal_toIDiESt4hashIDiENS8_18_Mod_range_hashingENS8_20_Default_ranged_hashENS8_20_Prime_rehash_policyENS8_17_Hashtable_traitsILb0ELb0ELb1EEEE12_M_find_nodeEmRS1_m
FN:960,961,_ZNSt10_HashtableIDiSt4pairIKDiN15vectorfontstorm5glyphI10TestVertexEEESaIS6_ENSt8__detail10_Select1stESt8equal_toIDiESt4hashIDiENS8_18_Mod_range_hashingENS8_20_Default_ranged_hashENS8_20_Prime_rehash_policyENS8_17_Hashtable_traitsILb0ELb0ELb1EEEE7emplaceIJRS1_S5_EEES0_INS8_14_Node_iteratorIS6_Lb0ELb0EEEbEDpOT_
FNDA:19,_ZNSt10_HashtableIDiSt4pairIKDiN15vectorfontstorm5glyphI10TestVertexEEESaIS6_ENSt8__detail10_Select1stESt8equal_toIDiESt4hashIDiENS8_18_Mod_range_hashingENS8_20_Default_ranged_hashENS8_20_Prime_rehash_policyENS8_17_Hashtable_traitsILb0ELb0ELb1EEEED2Ev
FNDA:1,_ZNSt10_HashtableIDiSt4pairIKDiN15vectorfontstorm5glyphI10TestVertexEEESaIS6_ENSt8__detail10_Select1stESt8equal_toIDiESt4hashIDiENS8_18_Mod_range_hashingENS8_20_Default_ranged_hashENS8_20_Prime_rehash_policyENS8_17_Hashtable_traitsILb0ELb0ELb1EEEE4swapERSJ_
FNDA:30,_ZNSt10_HashtableIDiSt4pairIKDiN15vectorfontstorm5glyphI10TestVertexEEESaIS6_ENSt8__detail10_Select1stESt8equal_toIDiESt4hashIDiENS8_18_Mod_range_hashingENS8_20_Default_ranged_hashENS8_20_Prime_rehash_policyENS8_17_Hashtable_traitsILb0ELb0ELb1EEEE4findERS1_
FNDA:27,_ZNKSt10_HashtableIDiSt4pairIKDiN15vectorfontstorm5glyphI10TestVertexEEESaIS6_ENSt8__detail10_Select1stESt8equal_toIDiESt4hashIDiENS8_18_Mod_range_hashingENS8_20_Default_ranged_hashENS8_20_Prime_rehash_policyENS8_17_Hashtable_traitsILb0ELb0ELb1EEEE19_M_find_before_nodeEmRS1_m
FNDA:27,_ZNSt10_HashtableIDiSt4pairIKDiN15vectorfontstorm5glyphI10TestVertexEEESaIS6_ENSt8__detail10_Select1stESt8equal_toIDiESt4hashIDiENS8_18_Mod_range_hashingENS8_20_Default_ranged_hashENS8_20_Prime_rehash_policyENS8_17_Hashtable_traitsILb0ELb0ELb1EEEE22_M_insert_bucket_beginEmPNS8_10_Hash_nodeIS6_Lb0EEE
FNDA:27,_ZNSt10_HashtableIDiSt4pairIKDiN15vectorfontstorm5glyphI10TestVertexEEESaIS6_ENSt8__detail10_Select1stESt8equal_toIDiESt4hashIDiENS8_18_Mod_range_hashingENS8_20_Default_ranged_hashENS8_20_Prime_rehash_policyENS8_17_Hashtable_traitsILb0ELb0ELb1EEEE10_M_emplaceIJRS1_S5_EEES0_INS8_14_Node_iteratorIS6_Lb0ELb0EEEbESt17integral_constantIbLb1EEDpOT_
FNDA:27,_ZNSt10_HashtableIDiSt4pairIKDiN15vectorfontstorm5glyphI10TestVertexEEESaIS6_ENSt8__detail10_Select1stESt8equal_toIDiESt4hashIDiENS8_18_Mod_range_hashingENS8_20_Default_ranged_hashENS8_20_Prime_rehash_policyENS8_17_Hashtable_traitsILb0ELb0ELb1EEEE21_M_insert_unique_nodeEmmPNS8_10_Hash_nodeIS6_Lb0EEEm
FNDA:19,_ZNSt10_HashtableIDiSt4pairIKDiN15vectorfontstorm5glyphI10TestVertexEEESaIS6_ENSt8__detail10_Select1stESt8equal_toIDiESt4hashIDiENS8_18_Mod_range_hashingENS8_20_Default_ranged_hashENS8_20_Prime_rehash_policyENS8_17_Hashtable_traitsILb0ELb0ELb1EEEE5clearEv
FNDA:15,_ZNSt10_HashtableIDiSt4pairIKDiN15vectorfontstorm5glyphI10TestVertexEEESaIS6_ENSt8__detail10_Select1stESt8equal_toIDiESt4hashIDiENS8_18_Mod_range_hashingENS8_20_Default_ranged_hashENS8_20_Prime_rehash_policyENS8_17_Hashtable_traitsILb0ELb0ELb1EEEE9_M_rehashEmRKm
FNDA:15,_ZNSt10_HashtableIDiSt4pairIKDiN15vectorfontstorm5glyphI10TestVertexEEESaIS6_ENSt8__detail10_Select1stESt8equal_toIDiESt4hashIDiENS8_18_Mod_range_hashingENS8_20_Default_ranged_hashENS8_20_Prime_rehash_policyENS8_17_Hashtable_traitsILb0ELb0ELb1EEEE13_M_rehash_auxEmSt17integral_constantIbLb1EE
FNDA:27,_ZNSt10_HashtableIDiSt4pairIKDiN15vectorfontstorm5glyphI10TestVertexEEESaIS6_ENSt8__detail10_Select1stESt8equal_toIDiESt4hashIDiENS8_18_Mod_range_hashingENS8_20_Default_ranged_hashENS8_20_Prime_rehash_policyENS8_17_Hashtable_traitsILb0ELb0ELb1EEEE12_Scoped_nodeC2IJRS1_S5_EEEPNS8_16_Hashtable_allocISaINS8_10_Hash_nodeIS6_Lb0EEEEEEDpOT_
FNDA:27,_ZNSt10_HashtableIDiSt4pairIKDiN15vectorfontstorm5glyphI10TestVertexEEESaIS6_ENSt8__detail10_Select1stESt8equal_toIDiESt4hashIDiENS8_18_Mod_range_hashingENS8_20_Default_ranged_hashENS8_20_Prime_rehash_policyENS8_17_Hashtable_traitsILb0ELb0ELb1EEEE12_Scoped_nodeD2Ev
FNDA:2,_ZNSt10_HashtableIDiSt4pairIKDiN15vectorfontstorm5glyphI10TestVertexEEESaIS6_ENSt8__detail10_Select1stESt8equal_toIDiESt4hashIDiENS8_18_Mod_range_hashingENS8_20_Default_ranged_hashENS8_20_Prime_rehash_policyENS8_17_Hashtable_traitsILb0ELb0ELb1EEEE16_M_update_bbeginEv
FNDA:36,_ZNKSt10_HashtableIDiSt4pairIKDiN15vectorfontstorm5glyphI10TestVertexEEESaIS6_ENSt8__detail10_Select1stESt8equal_toIDiESt4hashIDiENS8_18_Mod_range_hashingENS8_20_Default_ranged_hashENS8_20_Prime_rehash_policyENS8_17_Hashtable_traitsILb0ELb0ELb1EEEE21_M_uses_single_bucketEPPNS8_15_Hash_node_baseE
FNDA:2,_ZNKSt10_HashtableIDiSt4pairIKDiN15vectorfontstorm5glyphI10TestVertexEEESaIS6_ENSt8__detail10_Select1stESt8equal_toIDiESt4hashIDiENS8_18_Mod_range_hashingENS8_20_Default_ranged_hashENS8_20_Prime_rehash_policyENS8_17_Hashtable_traitsILb0ELb0ELb1EEEE21_M_uses_single_bucketEv
FNDA:84,_ZNSt10_HashtableIDiSt4pairIKDiN15vectorfontstorm5glyphI10TestVertexEEESaIS6_ENSt8__detail10_Select1stESt8equal_toIDiESt4hashIDiENS8_18_Mod_range_hashingENS8_20_Default_ranged_hashENS8_20_Prime_rehash_policyENS8_17_Hashtable_traitsILb0ELb0ELb1EEEE22__small_size_thresholdEv
FNDA:15,_ZNSt10_HashtableIDiSt4pairIKDiN15vectorfontstorm5glyphI10TestVertexEEESaIS6_ENSt8__detail10_Select1stESt8equal_toIDiESt4hashIDiENS8_18_Mod_range_hashingENS8_20_Default_ranged_hashENS8_20_Prime_rehash_policyENS8_17_Hashtable_traitsILb0ELb0ELb1EEEE19_M_allocate_bucketsEm
FNDA:34,_ZNSt10_HashtableIDiSt4pairIKDiN15vectorfontstorm5glyphI10TestVertexEEESaIS6_ENSt8__detail10_Select1stESt8equal_toIDiESt4hashIDiENS8_18_Mod_range_hashingENS8_20_Default_ranged_hashENS8_20_Prime_rehash_policyENS8_17_Hashtable_traitsILb0ELb0ELb1EEEE21_M_deallocate_bucketsEPPNS8_15_Hash_node_baseEm
FNDA:34,_ZNSt10_HashtableIDiSt4pairIKDiN15vectorfontstorm5glyphI10TestVertexEEESaIS6_ENSt8__detail10_Select1stESt8equal_toIDiESt4hashIDiENS8_18_Mod_range_hashingENS8_20_Default_ranged_hashENS8_20_Prime_rehash_policyENS8_17_Hashtable_traitsILb0ELb0ELb1EEEE21_M_deallocate_bucketsEv
FNDA:66,_ZNKSt10_HashtableIDiSt4pairIKDiN15vectorfontstorm5glyphI10TestVertexEEESaIS6_ENSt8__detail10_Select1stESt8equal_toIDiESt4hashIDiENS8_18_Mod_range_hashingENS8_20_Default_ranged_hashENS8_20_Prime_rehash_policyENS8_17_Hashtable_traitsILb0ELb0ELb1EEEE8_M_beginEv
FNDA:19,_ZNSt10_HashtableIDiSt4pairIKDiN15vectorfontstorm5glyphI10TestVertexEEESaIS6_ENSt8__detail10_Select1stESt8equal_toIDiESt4hashIDiENS8_18_Mod_range_hashingENS8_20_Default_ranged_hashENS8_20_Prime_rehash_policyENS8_17_Hashtable_traitsILb0ELb0ELb1EEEEC2Ev
FNDA:30,_ZNSt10_HashtableIDiSt4pairIKDiN15vectorfontstorm5glyphI10TestVertexEEESaIS6_ENSt8__detail10_Select1stESt8equal_toIDiESt4hashIDiENS8_18_Mod_range_hashingENS8_20_Default_ranged_hashENS8_20_Prime_rehash_policyENS8_17_Hashtable_traitsILb0ELb0ELb1EEEE5beginEv
FNDA:75,_ZNSt10_HashtableIDiSt4pairIKDiN15vectorfontstorm5glyphI10TestVertexEEESaIS6_ENSt8__detail10_Select1stESt8equal_toIDiESt4hashIDiENS8_18_Mod_range_hashingENS8_20_Default_ranged_hashENS8_20_Prime_rehash_policyENS8_17_Hashtable_traitsILb0ELb0ELb1EEEE3endEv
FNDA:84,_ZNKSt10_HashtableIDiSt4pairIKDiN15vectorfontstorm5glyphI10TestVertexEEESaIS6_ENSt8__detail10_Select1stESt8equal_toIDiESt4hashIDiENS8_18_Mod_range_hashingENS8_20_Default_ranged_hashENS8_20_Prime_rehash_policyENS8_17_Hashtable_traitsILb0ELb0ELb1EEEE4sizeEv
FNDA:13,_ZNKSt10_HashtableIDiSt4pairIKDiN15vectorfontstorm5glyphI10TestVertexEEESaIS6_ENSt8__detail10_Select1stESt8equal_toIDiESt4hashIDiENS8_18_Mod_range_hashingENS8_20_Default_ranged_hashENS8_20_Prime_rehash_policyENS8_17_Hashtable_traitsILb0ELb0ELb1EEEE15_M_bucket_indexERKNS8_16_Hash_node_valueIS6_Lb0EEE
FNDA:57,_ZNKSt10_HashtableIDiSt4pairIKDiN15vectorfontstorm5glyphI10TestVertexEEESaIS6_ENSt8__detail10_Select1stESt8equal_toIDiESt4hashIDiENS8_18_Mod_range_hashingENS8_20_Default_ranged_hashENS8_20_Prime_rehash_policyENS8_17_Hashtable_traitsILb0ELb0ELb1EEEE15_M_bucket_indexEm
FNDA:27,_ZNKSt10_HashtableIDiSt4pairIKDiN15vectorfontstorm5glyphI10TestVertexEEESaIS6_ENSt8__detail10_Select1stESt8equal_toIDiESt4hashIDiENS8_18_Mod_range_hashingENS8_20_Default_ranged_hashENS8_20_Prime_rehash_policyENS8_17_Hashtable_traitsILb0ELb0ELb1EEEE12_M_find_nodeEmRS1_m
FNDA:27,_ZNSt10_HashtableIDiSt4pairIKDiN15vectorfontstorm5glyphI10TestVertexEEESaIS6_ENSt8__detail10_Select1stESt8equal_toIDiESt4hashIDiENS8_18_Mod_range_hashingENS8_20_Default_ranged_hashENS8_20_Prime_rehash_policyENS8_17_Hashtable_traitsILb0ELb0ELb1EEEE7emplaceIJRS1_S5_EEES0_INS8_14_Node_iteratorIS6_Lb0ELb0EEEbEDpOT_
FNF:28
FNH:28
DA:305,27
DA:306,27
DA:307,27
DA:308,27
DA:311,27
DA:402,2
DA:404,2
DA:405,0
DA:406,2
DA:416,36
DA:417,36
DA:420,2
DA:421,2
DA:424,84
DA:427,84
DA:434,15
DA:436,15
DA:438,0
DA:439,0
DA:442,15
DA:446,34
DA:448,34
DA:449,19
DA:451,15
DA:455,34
DA:456,34
DA:464,66
DA:465,66
DA:530,19
DA:623,30
DA:624,30
DA:631,75
DA:632,75
DA:647,84
DA:648,84
DA:792,13
DA:793,13
DA:796,57
DA:797,57
DA:812,27
DA:815,27
DA:816,27
DA:817,3
DA:818,24
DA:960,27
DA:961,27
DA:1595,19
DA:1608,19
DA:1609,19
DA:1610,19
DA:1617,1
DA:1626,1
DA:1628,1
DA:1629,1
DA:1632,1
DA:1634,1
DA:1636,0
DA:1637,0
DA:1640,0
DA:1642,0
DA:1643,0
DA:1646,0
DA:1648,1
DA:1649,1
DA:1650,1
DA:1651,1
DA:1655,1
DA:1656,1
DA:1657,1
DA:1664,30
DA:1669,30
DA:1671,15
DA:1672,0
DA:1673,0
DA:1674,15
DA:1677,15
DA:1678,15
DA:1679,15
DA:1948,27
DA:1954,27
DA:1955,27
DA:1956,22
DA:1958,5
DA:1959,0
DA:1961,5
DA:1962,3
DA:1964,2
DA:1965,2
DA:1966,0
DA:1969,2
DA:2007,27
DA:2011,27
DA:2015,1
DA:2016,1
DA:2023,26
DA:2024,26
DA:2026,26
DA:2029,11
DA:2031,26
DA:2033,27
DA:2081,27
DA:2087,27
DA:2088,54
DA:2089,27
DA:2091,15
DA:2092,0
DA:2094,0
DA:2097,27
DA:2098,27
DA:2099,27
DA:2100,12
DA:2102,0
DA:2105,27
DA:2106,27
DA:2107,27
DA:2108,27
DA:2166,27
DA:2172,27
DA:2174,27
DA:2177,27
DA:2179,15
DA:2180,15
DA:2183,27
DA:2186,27
DA:2187,27
DA:2188,27
DA:2520,19
DA:2524,19
DA:2525,19
DA:2526,19
DA:2527,19
DA:2528,19
DA:2529,19
DA:2559,15
DA:2565,15
DA:2567,0
DA:2571,0
DA:2572,0
DA:2574,15
DA:2582,15
DA:2586,15
DA:2587,15
DA:2588,15
DA:2589,15
DA:2590,15
DA:2592,0
DA:2594,0
DA:2595,0
DA:2597,0
DA:2598,0
DA:2599,0
DA:2600,0
DA:2601,0
DA:2602,0
DA:2606,0
DA:2607,0
DA:2610,0
DA:2613,15
DA:2614,15
DA:2615,15
DA:2616,15
LF:161
LH:130
end_of_record
TN:
SF:/usr/include/c++/13/bits/hashtable_policy.h
FN:112,113,_ZNKSt8__detail10_Select1stclIRKSt4pairIKDiN15vectorfontstorm5glyphI10TestVertexEEEEEONS0_10__1st_typeIT_E4typeEOSC_
FN:112,113,_ZNKSt8__detail10_Select1stclIRSt4pairIKDiN15vectorfontstorm5glyphI10TestVertexEEEEEONS0_10__1st_typeIT_E4typeEOSB_
FN:1218,1218,_ZNSt8__detail21_Hashtable_ebo_helperILi0ESaINS_10_Hash_nodeISt4pairIKDiN15vectorfontstorm5glyphI10TestVertexEEELb0EEEELb1EEC2Ev
FN:1218,1218,_ZNSt8__detail21_Hashtable_ebo_helperILi0ESt8equal_toIDiELb1EEC2Ev
FN:1218,1218,_ZNSt8__detail21_Hashtable_ebo_helperILi1ESt4hashIDiELb1EEC2Ev
FN:1225,1225,_ZNKSt8__detail21_Hashtable_ebo_helperILi0ESt8equal_toIDiELb1EE7_M_cgetEv
FN:1225,1225,_ZNKSt8__detail21_Hashtable_ebo_helperILi1ESt4hashIDiELb1EE7_M_cgetEv
FN:1226,1226,_ZNSt8__detail21_Hashtable_ebo_helperILi0ESaINS_10_Hash_nodeISt4pairIKDiN15vectorfontstorm5glyphI10TestVertexEEELb0EEEELb1EE6_M_getEv
FN:1226,1226,_ZNSt8__detail21_Hashtable_ebo_helperILi0ESt8equal_toIDiELb1EE6_M_getEv
FN:1226,1226,_ZNSt8__detail21_Hashtable_ebo_helperILi1ESt4hashIDiELb1EE6_M_getEv
FN:1301,1301,_ZNSt8__detail15_Hash_code_baseIDiSt4pairIKDiN15vectorfontstorm5glyphI10TestVertexEEENS_10_Select1stESt4hashIDiENS_18_Mod_range_hashingENS_20_Default_ranged_hashELb0EEC2Ev
FN:1306,1311,_ZNKSt8__detail15_Hash_code_baseIDiSt4pairIKDiN15vectorfontstorm5glyphI10TestVertexEEENS_10_Select1stESt4hashIDiENS_18_Mod_range_hashingENS_20_Default_ranged_hashELb0EE12_M_hash_codeERS2_
FN:1331,1332,_ZNKSt8__detail15_Hash_code_baseIDiSt4pairIKDiN15vectorfontstorm5glyphI10TestVertexEEENS_10_Select1stESt4hashIDiENS_18_Mod_range_hashingENS_20_Default_ranged_hashELb0EE15_M_bucket_indexEmm
FN:1335,1343,_ZNKSt8__detail15_Hash_code_baseIDiSt4pairIKDiN15vectorfontstorm5glyphI10TestVertexEEENS_10_Select1stESt4hashIDiENS_18_Mod_range_hashingENS_20_Default_ranged_hashELb0EE15_M_bucket_indexERKNS_16_Hash_node_valueIS7_Lb0EEEm
FN:1353,1354,_ZNKSt8__detail15_Hash_code_baseIDiSt4pairIKDiN15vectorfontstorm5glyphI10TestVertexEEENS_10_Select1stESt4hashIDiENS_18_Mod_range_hashingENS_20_Default_ranged_hashELb0EE13_M_store_codeERNS_21_Hash_node_code_cacheILb0EEEm
FN:1371,1372,_ZNSt8__detail15_Hash_code_baseIDiSt4pairIKDiN15vectorfontstorm5glyphI10TestVertexEEENS_10_Select1stESt4hashIDiENS_18_Mod_range_hashingENS_20_Default_ranged_hashELb0EE7_M_swapERSD_
FN:1375,1375,_ZNKSt8__detail15_Hash_code_baseIDiSt4pairIKDiN15vectorfontstorm5glyphI10TestVertexEEENS_10_Select1stESt4hashIDiENS_18_Mod_range_hashingENS_20_Default_ranged_hashELb0EE7_M_hashEv
FN:1683,1684,_ZNSt8__detail15_Hashtable_baseIDiSt4pairIKDiN15vectorfontstorm5glyphI10TestVertexEEENS_10_Select1stESt8equal_toIDiESt4hashIDiENS_18_Mod_range_hashingENS_20_Default_ranged_hashENS_17_Hashtable_traitsILb0ELb0ELb1EEEE9_S_equalsEmRKNS_21_Hash_node_code_cacheILb0EEE
FN:1701,1701,_ZNSt8__detail15_Hashtable_baseIDiSt4pairIKDiN15vectorfontstorm5glyphI10TestVertexEEENS_10_Select1stESt8equal_toIDiESt4hashIDiENS_18_Mod_range_hashingENS_20_Default_ranged_hashENS_17_Hashtable_traitsILb0ELb0ELb1EEEEC2Ev
FN:1708,1716,_ZNKSt8__detail15_Hashtable_baseIDiSt4pairIKDiN15vectorfontstorm5glyphI10TestVertexEEENS_10_Select1stESt8equal_toIDiESt4hashIDiENS_18_Mod_range_hashingENS_20_Default_ranged_hashENS_17_Hashtable_traitsILb0ELb0ELb1EEEE13_M_key_equalsERS2_RKNS_16_Hash_node_valueIS7_Lb0EEE
FN:1732,1734,_ZNKSt8__detail15_Hashtable_baseIDiSt4pairIKDiN15vectorfontstorm5glyphI10TestVertexEEENS_10_Select1stESt8equal_toIDiESt4hashIDiENS_18_Mod_range_hashingENS_20_Default_ranged_hashENS_17_Hashtable_traitsILb0ELb0ELb1EEEE9_M_equalsERS2_mRKNS_16_Hash_node_valueIS7_Lb0EEE
FN:1753,1757,_ZNSt8__detail15_Hashtable_baseIDiSt4pairIKDiN15vectorfontstorm5glyphI10TestVertexEEENS_10_Select1stESt8equal_toIDiESt4hashIDiENS_18_Mod_range_hashingENS_20_Default_ranged_hashENS_17_Hashtable_traitsILb0ELb0ELb1EEEE7_M_swapERSH_
FN:1760,1760,_ZNKSt8__detail15_Hashtable_baseIDiSt4pairIKDiN15vectorfontstorm5glyphI10TestVertexEEENS_10_Select1stESt8equal_toIDiESt4hashIDiENS_18_Mod_range_hashingENS_20_Default_ranged_hashENS_17_Hashtable_traitsILb0ELb0ELb1EEEE5_M_eqEv
FN:1940,1940,_ZNSt8__detail16_Hashtable_allocISaINS_10_Hash_nodeISt4pairIKDiN15vectorfontstorm5glyphI10TestVertexEEELb0EEEEEC2Ev
FN:1950,1951,_ZNSt8__detail16_Hashtable_allocISaINS_10_Hash_nodeISt4pairIKDiN15vectorfontstorm5glyphI10TestVertexEEELb0EEEEE17_M_node_allocatorEv
FN:1987,2005,_ZNSt8__detail16_Hashtable_allocISaINS_10_Hash_nodeISt4pairIKDiN15vectorfontstorm5glyphI10TestVertexEEELb0EEEEE16_M_allocate_nodeIJRS3_S7_EEEPS9_DpOT_
FN:2009,2013,_ZNSt8__detail16_Hashtable_allocISaINS_10_Hash_nodeISt4pairIKDiN15vectorfontstorm5glyphI10TestVertexEEELb0EEEEE18_M_deallocate_nodeEPS9_
FN:2017,2023,_ZNSt8__detail16_Hashtable_allocISaINS_10_Hash_nodeISt4pairIKDiN15vectorfontstorm5glyphI10TestVertexEEELb0EEEEE22_M_deallocate_node_ptrEPS9_
FN:2027,2035,_ZNSt8__detail16_Hashtable_allocISaINS_10_Hash_nodeISt4pairIKDiN15vectorfontstorm5glyphI10TestVertexEEELb0EEEEE19_M_deallocate_nodesEPS9_
FN:2039,2048,_ZNSt8__detail16_Hashtable_allocISaINS_10_Hash_nodeISt4pairIKDiN15vectorfontstorm5glyphI10TestVertexEEELb0EEEEE19_M_allocate_bucketsEm
FN:2052,2060,_ZNSt8__detail16_Hashtable_allocISaINS_10_Hash_nodeISt4pairIKDiN15vectorfontstorm5glyphI10TestVertexEEELb0EEEEE21_M_deallocate_bucketsEPPNS_15_Hash_node_baseEm
FN:297,298,_ZNSt8__detail22_Hashtable_hash_traitsISt4hashIDiEE22__small_size_thresholdEv
FN:313,313,_ZNSt8__detail15_Hash_node_baseC2Ev
FN:380,381,_ZNKSt8__detail10_Hash_nodeISt4pairIKDiN15vectorfontstorm5glyphI10TestVertexEEELb0EE7_M_nextEv
FN:393,394,_ZNSt8__detail19_Node_iterator_baseISt4pairIKDiN15vectorfontstorm5glyphI10TestVertexEEELb0EEC2EPNS_10_Hash_nodeIS7_Lb0EEE
FN:397,398,_ZNSt8__detail19_Node_iterator_baseISt4pairIKDiN15vectorfontstorm5glyphI10TestVertexEEELb0EE7_M_incrEv
FN:401,403,_ZNSt8__detaileqERKNS_19_Node_iterator_baseISt4pairIKDiN15vectorfontstorm5glyphI10TestVertexEEELb0EEESA_
FN:407,409,_ZNSt8__detailneERKNS_19_Node_iterator_baseISt4pairIKDiN15vectorfontstorm5glyphI10TestVertexEEELb0EEESA_
FN:436,437,_ZNSt8__detail14_Node_iteratorISt4pairIKDiN15vectorfontstorm5glyphI10TestVertexEEELb0ELb0EEC2EPNS_10_Hash_nodeIS7_Lb0EEE
FN:444,445,_ZNKSt8__detail14_Node_iteratorISt4pairIKDiN15vectorfontstorm5glyphI10TestVertexEEELb0ELb0EEptEv
FN:448,452,_ZNSt8__detail14_Node_iteratorISt4pairIKDiN15vectorfontstorm5glyphI10TestVertexEEELb0ELb0EEppEv
FN:526,528,_ZNKSt8__detail18_Mod_range_hashingclEmm
FN:544,545,_ZNSt8__detail20_Prime_rehash_policyC2Ef
FN:571,572,_ZNKSt8__detail20_Prime_rehash_policy8_M_stateEv
FN:579,580,_ZNSt8__detail20_Prime_rehash_policy8_M_resetEm
FNDA:18,_ZNKSt8__detail10_Select1stclIRKSt4pairIKDiN15vectorfontstorm5glyphI10TestVertexEEEEEONS0_10__1st_typeIT_E4typeEOSC_
FNDA:27,_ZNKSt8__detail10_Select1stclIRSt4pairIKDiN15vectorfontstorm5glyphI10TestVertexEEEEEONS0_10__1st_typeIT_E4typeEOSB_
FNDA:19,_ZNSt8__detail21_Hashtable_ebo_helperILi0ESaINS_10_Hash_nodeISt4pairIKDiN15vectorfontstorm5glyphI10TestVertexEEELb0EEEELb1EEC2Ev
FNDA:19,_ZNSt8__detail21_Hashtable_ebo_helperILi0ESt8equal_toIDiELb1EEC2Ev
FNDA:19,_ZNSt8__detail21_Hashtable_ebo_helperILi1ESt4hashIDiELb1EEC2Ev
FNDA:5,_ZNKSt8__detail21_Hashtable_ebo_helperILi0ESt8equal_toIDiELb1EE7_M_cgetEv
FNDA:55,_ZNKSt8__detail21_Hashtable_ebo_helperILi1ESt4hashIDiELb1EE7_M_cgetEv
FNDA:140,_ZNSt8__detail21_Hashtable_ebo_helperILi0ESaINS_10_Hash_nodeISt4pairIKDiN15vectorfontstorm5glyphI10TestVertexEEELb0EEEELb1EE6_M_getEv
FNDA:2,_ZNSt8__detail21_Hashtable_ebo_helperILi0ESt8equal_toIDiELb1EE6_M_getEv
FNDA:2,_ZNSt8__detail21_Hashtable_ebo_helperILi1ESt4hashIDiELb1EE6_M_getEv
FNDA:19,_ZNSt8__detail15_Hash_code_baseIDiSt4pairIKDiN15vectorfontstorm5glyphI10TestVertexEEENS_10_Select1stESt4hashIDiENS_18_Mod_range_hashingENS_20_Default_ranged_hashELb0EEC2Ev
FNDA:55,_ZNKSt8__detail15_Hash_code_baseIDiSt4pairIKDiN15vectorfontstorm5glyphI10TestVertexEEENS_10_Select1stESt4hashIDiENS_18_Mod_range_hashingENS_20_Default_ranged_hashELb0EE12_M_hash_codeERS2_
FNDA:57,_ZNKSt8__detail15_Hash_code_baseIDiSt4pairIKDiN15vectorfontstorm5glyphI10TestVertexEEENS_10_Select1stESt4hashIDiENS_18_Mod_range_hashingENS_20_Default_ranged_hashELb0EE15_M_bucket_indexEmm
FNDA:13,_ZNKSt8__detail15_Hash_code_baseIDiSt4pairIKDiN15vectorfontstorm5glyphI10TestVertexEEENS_10_Select1stESt4hashIDiENS_18_Mod_range_hashingENS_20_Default_ranged_hashELb0EE15_M_bucket_indexERKNS_16_Hash_node_valueIS7_Lb0EEEm
FNDA:27,_ZNKSt8__detail15_Hash_code_baseIDiSt4pairIKDiN15vectorfontstorm5glyphI10TestVertexEEENS_10_Select1stESt4hashIDiENS_18_Mod_range_hashingENS_20_Default_ranged_hashELb0EE13_M_store_codeERNS_21_Hash_node_code_cacheILb0EEEm
FNDA:1,_ZNSt8__detail15_Hash_code_baseIDiSt4pairIKDiN15vectorfontstorm5glyphI10TestVertexEEENS_10_Select1stESt4hashIDiENS_18_Mod_range_hashingENS_20_Default_ranged_hashELb0EE7_M_swapERSD_
FNDA:55,_ZNKSt8__detail15_Hash_code_baseIDiSt4pairIKDiN15vectorfontstorm5glyphI10TestVertexEEENS_10_Select1stESt4hashIDiENS_18_Mod_range_hashingENS_20_Default_ranged_hashELb0EE7_M_hashEv
FNDA:5,_ZNSt8__detail15_Hashtable_baseIDiSt4pairIKDiN15vectorfontstorm5glyphI10TestVertexEEENS_10_Select1stESt8equal_toIDiESt4hashIDiENS_18_Mod_range_hashingENS_20_Default_ranged_hashENS_17_Hashtable_traitsILb0ELb0ELb1EEEE9_S_equalsEmRKNS_21_Hash_node_code_cacheILb0EEE
FNDA:19,_ZNSt8__detail15_Hashtable_baseIDiSt4pairIKDiN15vectorfontstorm5glyphI10TestVertexEEENS_10_Select1stESt8equal_toIDiESt4hashIDiENS_18_Mod_range_hashingENS_20_Default_ranged_hashENS_17_Hashtable_traitsILb0ELb0ELb1EEEEC2Ev
FNDA:5,_ZNKSt8__detail15_Hashtable_baseIDiSt4pairIKDiN15vectorfontstorm5glyphI10TestVertexEEENS_10_Select1stESt8equal_toIDiESt4hashIDiENS_18_Mod_range_hashingENS_20_Default_ranged_hashENS_17_Hashtable_traitsILb0ELb0ELb1EEEE13_M_key_equalsERS2_RKNS_16_Hash_node_valueIS7_Lb0EEE
FNDA:5,_ZNKSt8__detail15_Hashtable_baseIDiSt4pairIKDiN15vectorfontstorm5glyphI10TestVertexEEENS_10_Select1stESt8equal_toIDiESt4hashIDiENS_18_Mod_range_hashingENS_20_Default_ranged_hashENS_17_Hashtable_traitsILb0ELb0ELb1EEEE9_M_equalsERS2_mRKNS_16_Hash_node_valueIS7_Lb0EEE
FNDA:1,_ZNSt8__detail15_Hashtable_baseIDiSt4pairIKDiN15vectorfontstorm5glyphI10TestVertexEEENS_10_Select1stESt8equal_toIDiESt4hashIDiENS_18_Mod_range_hashingENS_20_Default_ranged_hashENS_17_Hashtable_traitsILb0ELb0ELb1EEEE7_M_swapERSH_
FNDA:5,_ZNKSt8__detail15_Hashtable_baseIDiSt4pairIKDiN15vectorfontstorm5glyphI10TestVertexEEENS_10_Select1stESt8equal_toIDiESt4hashIDiENS_18_Mod_range_hashingENS_20_Default_ranged_hashENS_17_Hashtable_traitsILb0ELb0ELb1EEEE5_M_eqEv
FNDA:19,_ZNSt8__detail16_Hashtable_allocISaINS_10_Hash_nodeISt4pairIKDiN15vectorfontstorm5glyphI10TestVertexEEELb0EEEEEC2Ev
FNDA:140,_ZNSt8__detail16_Hashtable_allocISaINS_10_Hash_nodeISt4pairIKDiN15vectorfontstorm5glyphI10TestVertexEEELb0EEEEE17_M_node_allocatorEv
FNDA:27,_ZNSt8__detail16_Hashtable_allocISaINS_10_Hash_nodeISt4pairIKDiN15vectorfontstorm5glyphI10TestVertexEEELb0EEEEE16_M_allocate_nodeIJRS3_S7_EEEPS9_DpOT_
FNDA:27,_ZNSt8__detail16_Hashtable_allocISaINS_10_Hash_nodeISt4pairIKDiN15vectorfontstorm5glyphI10TestVertexEEELb0EEEEE18_M_deallocate_nodeEPS9_
FNDA:27,_ZNSt8__detail16_Hashtable_allocISaINS_10_Hash_nodeISt4pairIKDiN15vectorfontstorm5glyphI10TestVertexEEELb0EEEEE22_M_deallocate_node_ptrEPS9_
FNDA:19,_ZNSt8__detail16_Hashtable_allocISaINS_10_Hash_nodeISt4pairIKDiN15vectorfontstorm5glyphI10TestVertexEEELb0EEEEE19_M_deallocate_nodesEPS9_
FNDA:15,_ZNSt8__detail16_Hashtable_allocISaINS_10_Hash_nodeISt4pairIKDiN15vectorfontstorm5glyphI10TestVertexEEELb0EEEEE19_M_allocate_bucketsEm
FNDA:15,_ZNSt8__detail16_Hashtable_allocISaINS_10_Hash_nodeISt4pairIKDiN15vectorfontstorm5glyphI10TestVertexEEELb0EEEEE21_M_deallocate_bucketsEPPNS_15_Hash_node_baseEm
FNDA:84,_ZNSt8__detail22_Hashtable_hash_traitsISt4hashIDiEE22__small_size_thresholdEv
FNDA:46,_ZNSt8__detail15_Hash_node_baseC2Ev
FNDA:40,_ZNKSt8__detail10_Hash_nodeISt4pairIKDiN15vectorfontstorm5glyphI10TestVertexEEELb0EE7_M_nextEv
FNDA:147,_ZNSt8__detail19_Node_iterator_baseISt4pairIKDiN15vectorfontstorm5glyphI10TestVertexEEELb0EEC2EPNS_10_Hash_nodeIS7_Lb0EEE
FNDA:0,_ZNSt8__detail19_Node_iterator_baseISt4pairIKDiN15vectorfontstorm5glyphI10TestVertexEEELb0EE7_M_incrEv
FNDA:30,_ZNSt8__detaileqERKNS_19_Node_iterator_baseISt4pairIKDiN15vectorfontstorm5glyphI10TestVertexEEELb0EEESA_
FNDA:30,_ZNSt8__detailneERKNS_19_Node_iterator_baseISt4pairIKDiN15vectorfontstorm5glyphI10TestVertexEEELb0EEESA_
FNDA:147,_ZNSt8__detail14_Node_iteratorISt4pairIKDiN15vectorfontstorm5glyphI10TestVertexEEELb0ELb0EEC2EPNS_10_Hash_nodeIS7_Lb0EEE
FNDA:30,_ZNKSt8__detail14_Node_iteratorISt4pairIKDiN15vectorfontstorm5glyphI10TestVertexEEELb0ELb0EEptEv
FNDA:0,_ZNSt8__detail14_Node_iteratorISt4pairIKDiN15vectorfontstorm5glyphI10TestVertexEEELb0ELb0EEppEv
FNDA:70,_ZNKSt8__detail18_Mod_range_hashingclEmm
FNDA:19,_ZNSt8__detail20_Prime_rehash_policyC2Ef
FNDA:27,_ZNKSt8__detail20_Prime_rehash_policy8_M_stateEv
FNDA:0,_ZNSt8__detail20_Prime_rehash_policy8_M_resetEm
FNF:45
FNH:42
DA:112,45
DA:113,45
DA:297,84
DA:298,84
DA:313,46
DA:333,111
DA:338,18
DA:343,27
DA:348,18
DA:380,40
DA:381,40
DA:393,147
DA:394,147
DA:397,0
DA:398,0
DA:401,30
DA:403,30
DA:407,30
DA:409,30
DA:436,147
DA:437,147
DA:444,30
DA:445,60
DA:448,0
DA:450,0
DA:451,0
DA:526,70
DA:528,70
DA:544,19
DA:545,19
DA:571,27
DA:572,27
DA:579,0
DA:580,0
DA:1218,57
DA:1225,60
DA:1226,144
DA:1301,19
DA:1306,55
DA:1310,55
DA:1331,57
DA:1332,57
DA:1335,13
DA:1341,39
DA:1342,13
DA:1353,27
DA:1354,27
DA:1371,1
DA:1372,1
DA:1375,55
DA:1683,5
DA:1684,5
DA:1701,19
DA:1708,5
DA:1715,10
DA:1732,5
DA:1734,5
DA:1753,1
DA:1755,1
DA:1756,1
DA:1757,1
DA:1760,5
DA:1940,19
DA:1950,140
DA:1951,140
DA:1987,27
DA:1990,27
DA:1991,27
DA:1994,27
DA:1995,54
DA:1998,27
DA:2000,0
DA:2002,0
DA:2003,0
DA:2009,27
DA:2011,54
DA:2012,27
DA:2013,27
DA:2017,27
DA:2020,27
DA:2021,27
DA:2022,27
DA:2023,27
DA:2027,19
DA:2029,46
DA:2031,27
DA:2032,27
DA:2033,27
DA:2035,19
DA:2039,15
DA:2042,15
DA:2044,15
DA:2045,15
DA:2046,15
DA:2047,30
DA:2052,15
DA:2057,15
DA:2058,15
DA:2060,15
LF:99
LH:89
end_of_record
TN:
SF:/usr/include/c++/13/bits/ios_base.h
FN:103,104,_ZStaNRSt13_Ios_FmtflagsS_
FN:1067,1071,_ZSt3hexRSt8ios_base
FN:130,131,_ZStorSt13_Ios_OpenmodeS_
FN:706,712,_ZNSt8ios_base4setfESt13_Ios_FmtflagsS0_
FN:83,84,_ZStanSt13_Ios_FmtflagsS_
FN:87,88,_ZStorSt13_Ios_FmtflagsS_
FN:95,96,_ZStcoSt13_Ios_Fmtflags
FN:99,100,_ZStoRRSt13_Ios_FmtflagsS_
FNDA:3,_ZStaNRSt13_Ios_FmtflagsS_
FNDA:3,_ZSt3hexRSt8ios_base
FNDA:17,_ZStorSt13_Ios_OpenmodeS_
FNDA:3,_ZNSt8ios_base4setfESt13_Ios_FmtflagsS0_
FNDA:6,_ZStanSt13_Ios_FmtflagsS_
FNDA:3,_ZStorSt13_Ios_FmtflagsS_
FNDA:3,_ZStcoSt13_Ios_Fmtflags
FNDA:3,_ZStoRRSt13_Ios_FmtflagsS_
FNF:8
FNH:8
DA:83,6
DA:84,6
DA:87,3
DA:88,3
DA:95,3
DA:96,3
DA:99,3
DA:100,3
DA:103,3
DA:104,3
DA:130,17
DA:131,17
DA:706,3
DA:708,3
DA:709,3
DA:710,3
DA:711,3
DA:1067,3
DA:1069,3
DA:1070,3
LF:20
LH:20
end_of_record
TN:
SF:/usr/include/c++/13/bits/list.tcc
FN:331,363,_ZNSt7__cxx114listIPN3p2t8TriangleESaIS3_EE6removeERKS3_
FN:66,83,_ZNSt7__cxx1110_List_baseIPN3p2t8TriangleESaIS3_EE8_M_clearEv
FNDA:0,_ZNSt7__cxx114listIPN3p2t8TriangleESaIS3_EE6removeERKS3_
FNDA:68,_ZNSt7__cxx1110_List_baseIPN3p2t8TriangleESaIS3_EE8_M_clearEv
FNF:2
FNH:1
DA:66,68
DA:70,68
DA:71,1726
DA:73,1658
DA:74,1658
DA:75,1658
DA:77,1658
DA:81,1658
DA:83,68
DA:331,0
DA:337,0
DA:338,0
DA:339,0
DA:340,0
DA:342,0
DA:343,0
DA:344,0
DA:349,0
DA:355,0
DA:361,0
DA:363,0
LF:21
LH:9
end_of_record
TN:
SF:/usr/include/c++/13/bits/move.h
FN:138,139,_ZSt9addressofIDiEPT_RS0_
FN:138,139,_ZSt9addressofIKDiEPT_RS1_
FN:138,139,_ZSt9addressofINSt8__detail10_Hash_nodeISt4pairIKDiN15vectorfontstorm5glyphI10TestVertexEEELb0EEEEPT_RSA_
FN:138,139,_ZSt9addressofIPNSt8__detail15_Hash_node_baseEEPT_RS3_
FN:189,200,_ZSt4swapIN15vectorfontstorm5pointEENSt9enable_ifIXsrSt6__and_IJSt6__not_ISt15__is_tuple_likeIT_EESt21is_move_constructibleIS6_ESt18is_move_assignableIS6_EEE5valueEvE4typeERS6_SG_
FN:189,200,_ZSt4swapIN15vectorfontstorm7segmentI10TestVertexEEENSt9enable_ifIXsrSt6__and_IJSt6__not_ISt15__is_tuple_likeIT_EESt21is_move_constructibleIS8_ESt18is_move_assignableIS8_EEE5valueEvE4typeERS8_SI_
FN:189,200,_ZSt4swapINSt8__detail20_Prime_rehash_policyEENSt9enable_ifIXsrSt6__and_IJSt6__not_ISt15__is_tuple_likeIT_EESt21is_move_constructibleIS6_ESt18is_move_assignableIS6_EEE5valueEvE4typeERS6_SG_
FN:189,200,_ZSt4swapIP11FT_FaceRec_ENSt9enable_ifIXsrSt6__and_IJSt6__not_ISt15__is_tuple_likeIT_EESt21is_move_constructibleIS6_ESt18is_move_assignableIS6_EEE5valueEvE4typeERS6_SG_
FN:189,200,_ZSt4swapIP14FT_LibraryRec_ENSt9enable_ifIXsrSt6__and_IJSt6__not_ISt15__is_tuple_likeIT_EESt21is_move_constructibleIS6_ESt18is_move_assignableIS6_EEE5valueEvE4typeERS6_SG_
FN:189,200,_ZSt4swapIPN3p2t5PointEENSt9enable_ifIXsrSt6__and_IJSt6__not_ISt15__is_tuple_likeIT_EESt21is_move_constructibleIS7_ESt18is_move_assignableIS7_EEE5valueEvE4typeERS7_SH_
FN:189,200,_ZSt4swapIPNSt8__detail15_Hash_node_baseEENSt9enable_ifIXsrSt6__and_IJSt6__not_ISt15__is_tuple_likeIT_EESt21is_move_constructibleIS7_ESt18is_move_assignableIS7_EEE5valueEvE4typeERS7_SH_
FN:189,200,_ZSt4swapIPPNSt8__detail15_Hash_node_baseEENSt9enable_ifIXsrSt6__and_IJSt6__not_ISt15__is_tuple_likeIT_EESt21is_move_constructibleIS8_ESt18is_move_assignableIS8_EEE5valueEvE4typeERS8_SI_
FN:189,200,_ZSt4swapISt4hashIDiEENSt9enable_ifIXsrSt6__and_IJSt6__not_ISt15__is_tuple_likeIT_EESt21is_move_constructibleIS6_ESt18is_move_assignableIS6_EEE5valueEvE4typeERS6_SG_
FN:189,200,_ZSt4swapISt8equal_toIDiEENSt9enable_ifIXsrSt6__and_IJSt6__not_ISt15__is_tuple_likeIT_EESt21is_move_constructibleIS6_ESt18is_move_assignableIS6_EEE5valueEvE4typeERS6_SG_
FN:189,200,_ZSt4swapIdENSt9enable_ifIXsrSt6__and_IJSt6__not_ISt15__is_tuple_likeIT_EESt21is_move_constructibleIS4_ESt18is_move_assignableIS4_EEE5valueEvE4typeERS4_SE_
FN:189,200,_ZSt4swapImENSt9enable_ifIXsrSt6__and_IJSt6__not_ISt15__is_tuple_likeIT_EESt21is_move_constructibleIS4_ESt18is_move_assignableIS4_EEE5valueEvE4typeERS4_SE_
FN:51,52,_ZSt11__addressofI10TestVertexEPT_RS1_
FN:51,52,_ZSt11__addressofIDiEPT_RS0_
FN:51,52,_ZSt11__addressofIKDiEPT_RS1_
FN:51,52,_ZSt11__addressofIKSt6vectorI10TestVertexSaIS1_EEEPT_RS5_
FN:51,52,_ZSt11__addressofIKSt6vectorIN15vectorfontstorm5pointESaIS2_EEEPT_RS6_
FN:51,52,_ZSt11__addressofIKSt6vectorIjSaIjEEEPT_RS4_
FN:51,52,_ZSt11__addressofIN15vectorfontstorm5pointEEPT_RS2_
FN:51,52,_ZSt11__addressofIN15vectorfontstorm7contourI10TestVertexEEEPT_RS4_
FN:51,52,_ZSt11__addressofIN15vectorfontstorm7segmentI10TestVertexEEEPT_RS4_
FN:51,52,_ZSt11__addressofINSt7__cxx114listIPN3p2t8TriangleESaIS4_EEEEPT_RS7_
FN:51,52,_ZSt11__addressofINSt8__detail10_Hash_nodeISt4pairIKDiN15vectorfontstorm5glyphI10TestVertexEEELb0EEEEPT_RSA_
FN:51,52,_ZSt11__addressofIPNSt8__detail15_Hash_node_baseEEPT_RS3_
FN:51,52,_ZSt11__addressofISaISt10_List_nodeIPN3p2t8TriangleEEEEPT_RS6_
FN:51,52,_ZSt11__addressofISt10shared_ptrIN3p2t5PointEEEPT_RS4_
FN:51,52,_ZSt11__addressofIhEPT_RS0_
FN:70,71,_ZSt7forwardI10TestVertexEOT_RNSt16remove_referenceIS1_E4typeE
FN:70,71,_ZSt7forwardI7vector2IfEEOT_RNSt16remove_referenceIS2_E4typeE
FN:70,71,_ZSt7forwardIN15vectorfontstorm5glyphI10TestVertexEEEOT_RNSt16remove_referenceIS4_E4typeE
FN:70,71,_ZSt7forwardIN15vectorfontstorm5point5typesEEOT_RNSt16remove_referenceIS3_E4typeE
FN:70,71,_ZSt7forwardIN15vectorfontstorm5pointEEOT_RNSt16remove_referenceIS2_E4typeE
FN:70,71,_ZSt7forwardINSt8__detail14_Node_iteratorISt4pairIKDiN15vectorfontstorm5glyphI10TestVertexEEELb0ELb0EEEEOT_RNSt16remove_referenceISA_E4typeE
FN:70,71,_ZSt7forwardIPN3p2t4EdgeEEOT_RNSt16remove_referenceIS3_E4typeE
FN:70,71,_ZSt7forwardIPN3p2t5PointEEOT_RNSt16remove_referenceIS3_E4typeE
FN:70,71,_ZSt7forwardIPN3p2t8TriangleEEOT_RNSt16remove_referenceIS3_E4typeE
FN:70,71,_ZSt7forwardIR10TestVertexEOT_RNSt16remove_referenceIS2_E4typeE
FN:70,71,_ZSt7forwardIRK10TestVertexEOT_RNSt16remove_referenceIS3_E4typeE
FN:70,71,_ZSt7forwardIRK7vector2IfEEOT_RNSt16remove_referenceIS4_E4typeE
FN:70,71,_ZSt7forwardIRKDiEOT_RNSt16remove_referenceIS2_E4typeE
FN:70,71,_ZSt7forwardIRKN15vectorfontstorm5point5typesEEOT_RNSt16remove_referenceIS5_E4typeE
FN:70,71,_ZSt7forwardIRKN15vectorfontstorm5pointEEOT_RNSt16remove_referenceIS4_E4typeE
FN:70,71,_ZSt7forwardIRKN15vectorfontstorm7contourI10TestVertexEEEOT_RNSt16remove_referenceIS6_E4typeE
FN:70,71,_ZSt7forwardIRKN15vectorfontstorm7segmentI10TestVertexEEEOT_RNSt16remove_referenceIS6_E4typeE
FN:70,71,_ZSt7forwardIRKSt10shared_ptrIN3p2t5PointEEEOT_RNSt16remove_referenceIS6_E4typeE
FN:70,71,_ZSt7forwardIRKSt4pairIKDiN15vectorfontstorm5glyphI10TestVertexEEEEOT_RNSt16remove_referenceIS9_E4typeE
FN:70,71,_ZSt7forwardIRKfEOT_RNSt16remove_referenceIS2_E4typeE
FN:70,71,_ZSt7forwardIRKjEOT_RNSt16remove_referenceIS2_E4typeE
FN:70,71,_ZSt7forwardIRN15vectorfontstorm5pointEEOT_RNSt16remove_referenceIS3_E4typeE
FN:70,71,_ZSt7forwardIRNSt8__detail14_Node_iteratorISt4pairIKDiN15vectorfontstorm5glyphI10TestVertexEEELb0ELb0EEEEOT_RNSt16remove_referenceISB_E4typeE
FN:70,71,_ZSt7forwardIRPN3p2t4NodeEEOT_RNSt16remove_referenceIS4_E4typeE
FN:70,71,_ZSt7forwardIRPN3p2t5PointEEOT_RNSt16remove_referenceIS4_E4typeE
FN:70,71,_ZSt7forwardIRPN3p2t8TriangleEEOT_RNSt16remove_referenceIS4_E4typeE
FN:70,71,_ZSt7forwardIRSt4pairIKDiN15vectorfontstorm5glyphI10TestVertexEEEEOT_RNSt16remove_referenceIS8_E4typeE
FN:70,71,_ZSt7forwardIRfEOT_RNSt16remove_referenceIS1_E4typeE
FN:70,71,_ZSt7forwardISt10shared_ptrIN3p2t5PointEEEOT_RNSt16remove_referenceIS4_E4typeE
FN:70,71,_ZSt7forwardIbEOT_RNSt16remove_referenceIS0_E4typeE
FN:70,71,_ZSt7forwardIdEOT_RNSt16remove_referenceIS0_E4typeE
FN:70,71,_ZSt7forwardIfEOT_RNSt16remove_referenceIS0_E4typeE
FN:70,71,_ZSt7forwardIjEOT_RNSt16remove_referenceIS0_E4typeE
FN:70,71,_ZSt7forwardImEOT_RNSt16remove_referenceIS0_E4typeE
FN:97,98,_ZSt4moveIR10TestVertexEONSt16remove_referenceIT_E4typeEOS3_
FN:97,98,_ZSt4moveIRN15vectorfontstorm5pointEEONSt16remove_referenceIT_E4typeEOS4_
FN:97,98,_ZSt4moveIRN15vectorfontstorm7segmentI10TestVertexEEEONSt16remove_referenceIT_E4typeEOS6_
FN:97,98,_ZSt4moveIRN9__gnu_cxx5__ops15_Iter_comp_iterIPFbSt10shared_ptrIN3p2t5PointEES6_EEEEONSt16remove_referenceIT_E4typeEOSC_
FN:97,98,_ZSt4moveIRNSt12_Vector_baseIhSaIhEE12_Vector_implEEONSt16remove_referenceIT_E4typeEOS6_
FN:97,98,_ZSt4moveIRNSt7__cxx114listIPN3p2t8TriangleESaIS4_EEEEONSt16remove_referenceIT_E4typeEOS9_
FN:97,98,_ZSt4moveIRNSt8__detail20_Prime_rehash_policyEEONSt16remove_referenceIT_E4typeEOS4_
FN:97,98,_ZSt4moveIRP10TestVertexEONSt16remove_referenceIT_E4typeEOS4_
FN:97,98,_ZSt4moveIRP11FT_FaceRec_EONSt16remove_referenceIT_E4typeEOS4_
FN:97,98,_ZSt4moveIRP14FT_LibraryRec_EONSt16remove_referenceIT_E4typeEOS4_
FN:97,98,_ZSt4moveIRPFbSt10shared_ptrIN3p2t5PointEES3_EEONSt16remove_referenceIT_E4typeEOS8_
FN:97,98,_ZSt4moveIRPN3p2t5PointEEONSt16remove_referenceIT_E4typeEOS5_
FN:97,98,_ZSt4moveIRPNSt8__detail15_Hash_node_baseEEONSt16remove_referenceIT_E4typeEOS5_
FN:97,98,_ZSt4moveIRPPNSt8__detail15_Hash_node_baseEEONSt16remove_referenceIT_E4typeEOS6_
FN:97,98,_ZSt4moveIRPjEONSt16remove_referenceIT_E4typeEOS3_
FN:97,98,_ZSt4moveIRSaISt10_List_nodeIPN3p2t8TriangleEEEEONSt16remove_referenceIT_E4typeEOS8_
FN:97,98,_ZSt4moveIRSaIhEEONSt16remove_referenceIT_E4typeEOS3_
FN:97,98,_ZSt4moveIRSt10shared_ptrIN3p2t5PointEEEONSt16remove_referenceIT_E4typeEOS6_
FN:97,98,_ZSt4moveIRSt12__shared_ptrIN3p2t5PointELN9__gnu_cxx12_Lock_policyE2EEEONSt16remove_referenceIT_E4typeEOS8_
FN:97,98,_ZSt4moveIRSt4hashIDiEEONSt16remove_referenceIT_E4typeEOS4_
FN:97,98,_ZSt4moveIRSt6vectorIhSaIhEEEONSt16remove_referenceIT_E4typeEOS5_
FN:97,98,_ZSt4moveIRSt8equal_toIDiEEONSt16remove_referenceIT_E4typeEOS4_
FN:97,98,_ZSt4moveIRdEONSt16remove_referenceIT_E4typeEOS2_
FN:97,98,_ZSt4moveIRjEONSt16remove_referenceIT_E4typeEOS2_
FN:97,98,_ZSt4moveIRmEONSt16remove_referenceIT_E4typeEOS2_
FNDA:4,_ZSt9addressofIDiEPT_RS0_
FNDA:4,_ZSt9addressofIKDiEPT_RS1_
FNDA:27,_ZSt9addressofINSt8__detail10_Hash_nodeISt4pairIKDiN15vectorfontstorm5glyphI10TestVertexEEELb0EEEEPT_RSA_
FNDA:15,_ZSt9addressofIPNSt8__detail15_Hash_node_baseEEPT_RS3_
FNDA:291,_ZSt4swapIN15vectorfontstorm5pointEENSt9enable_ifIXsrSt6__and_IJSt6__not_ISt15__is_tuple_likeIT_EESt21is_move_constructibleIS6_ESt18is_move_assignableIS6_EEE5valueEvE4typeERS6_SG_
FNDA:138,_ZSt4swapIN15vectorfontstorm7segmentI10TestVertexEEENSt9enable_ifIXsrSt6__and_IJSt6__not_ISt15__is_tuple_likeIT_EESt21is_move_constructibleIS8_ESt18is_move_assignableIS8_EEE5valueEvE4typeERS8_SI_
FNDA:1,_ZSt4swapINSt8__detail20_Prime_rehash_policyEENSt9enable_ifIXsrSt6__and_IJSt6__not_ISt15__is_tuple_likeIT_EESt21is_move_constructibleIS6_ESt18is_move_assignableIS6_EEE5valueEvE4typeERS6_SG_
FNDA:1,_ZSt4swapIP11FT_FaceRec_ENSt9enable_ifIXsrSt6__and_IJSt6__not_ISt15__is_tuple_likeIT_EESt21is_move_constructibleIS6_ESt18is_move_assignableIS6_EEE5valueEvE4typeERS6_SG_
FNDA:1,_ZSt4swapIP14FT_LibraryRec_ENSt9enable_ifIXsrSt6__and_IJSt6__not_ISt15__is_tuple_likeIT_EESt21is_move_constructibleIS6_ESt18is_move_assignableIS6_EEE5valueEvE4typeERS6_SG_
FNDA:4246,_ZSt4swapIPN3p2t5PointEENSt9enable_ifIXsrSt6__and_IJSt6__not_ISt15__is_tuple_likeIT_EESt21is_move_constructibleIS7_ESt18is_move_assignableIS7_EEE5valueEvE4typeERS7_SH_
FNDA:2,_ZSt4swapIPNSt8__detail15_Hash_node_baseEENSt9enable_ifIXsrSt6__and_IJSt6__not_ISt15__is_tuple_likeIT_EESt21is_move_constructibleIS7_ESt18is_move_assignableIS7_EEE5valueEvE4typeERS7_SH_
FNDA:0,_ZSt4swapIPPNSt8__detail15_Hash_node_baseEENSt9enable_ifIXsrSt6__and_IJSt6__not_ISt15__is_tuple_likeIT_EESt21is_move_constructibleIS8_ESt18is_move_assignableIS8_EEE5valueEvE4typeERS8_SI_
FNDA:1,_ZSt4swapISt4hashIDiEENSt9enable_ifIXsrSt6__and_IJSt6__not_ISt15__is_tuple_likeIT_EESt21is_move_constructibleIS6_ESt18is_move_assignableIS6_EEE5valueEvE4typeERS6_SG_
FNDA:1,_ZSt4swapISt8equal_toIDiEENSt9enable_ifIXsrSt6__and_IJSt6__not_ISt15__is_tuple_likeIT_EESt21is_move_constructibleIS6_ESt18is_move_assignableIS6_EEE5valueEvE4typeERS6_SG_
FNDA:2,_ZSt4swapIdENSt9enable_ifIXsrSt6__and_IJSt6__not_ISt15__is_tuple_likeIT_EESt21is_move_constructibleIS4_ESt18is_move_assignableIS4_EEE5valueEvE4typeERS4_SE_
FNDA:2,_ZSt4swapImENSt9enable_ifIXsrSt6__and_IJSt6__not_ISt15__is_tuple_likeIT_EESt21is_move_constructibleIS4_ESt18is_move_assignableIS4_EEE5valueEvE4typeERS4_SE_
FNDA:32637,_ZSt11__addressofI10TestVertexEPT_RS1_
FNDA:4,_ZSt11__addressofIDiEPT_RS0_
FNDA:4,_ZSt11__addressofIKDiEPT_RS1_
FNDA:1,_ZSt11__addressofIKSt6vectorI10TestVertexSaIS1_EEEPT_RS5_
FNDA:276,_ZSt11__addressofIKSt6vectorIN15vectorfontstorm5pointESaIS2_EEEPT_RS6_
FNDA:1,_ZSt11__addressofIKSt6vectorIjSaIjEEEPT_RS4_
FNDA:12281,_ZSt11__addressofIN15vectorfontstorm5pointEEPT_RS2_
FNDA:93,_ZSt11__addressofIN15vectorfontstorm7contourI10TestVertexEEEPT_RS4_
FNDA:3067,_ZSt11__addressofIN15vectorfontstorm7segmentI10TestVertexEEEPT_RS4_
FNDA:0,_ZSt11__addressofINSt7__cxx114listIPN3p2t8TriangleESaIS4_EEEEPT_RS7_
FNDA:27,_ZSt11__addressofINSt8__detail10_Hash_nodeISt4pairIKDiN15vectorfontstorm5glyphI10TestVertexEEELb0EEEEPT_RSA_
FNDA:15,_ZSt11__addressofIPNSt8__detail15_Hash_node_baseEEPT_RS3_
FNDA:1658,_ZSt11__addressofISaISt10_List_nodeIPN3p2t8TriangleEEEEPT_RS6_
FNDA:6333,_ZSt11__addressofISt10shared_ptrIN3p2t5PointEEEPT_RS4_
FNDA:17,_ZSt11__addressofIhEPT_RS0_
FNDA:20672,_ZSt7forwardI10TestVertexEOT_RNSt16remove_referenceIS1_E4typeE
FNDA:0,_ZSt7forwardI7vector2IfEEOT_RNSt16remove_referenceIS2_E4typeE
FNDA:216,_ZSt7forwardIN15vectorfontstorm5glyphI10TestVertexEEEOT_RNSt16remove_referenceIS4_E4typeE
FNDA:6552,_ZSt7forwardIN15vectorfontstorm5point5typesEEOT_RNSt16remove_referenceIS3_E4typeE
FNDA:3086,_ZSt7forwardIN15vectorfontstorm5pointEEOT_RNSt16remove_referenceIS2_E4typeE
FNDA:0,_ZSt7forwardINSt8__detail14_Node_iteratorISt4pairIKDiN15vectorfontstorm5glyphI10TestVertexEEELb0ELb0EEEEOT_RNSt16remove_referenceISA_E4typeE
FNDA:7202,_ZSt7forwardIPN3p2t4EdgeEEOT_RNSt16remove_referenceIS3_E4typeE
FNDA:3640,_ZSt7forwardIPN3p2t5PointEEOT_RNSt16remove_referenceIS3_E4typeE
FNDA:5496,_ZSt7forwardIPN3p2t8TriangleEEOT_RNSt16remove_referenceIS3_E4typeE
FNDA:0,_ZSt7forwardIR10TestVertexEOT_RNSt16remove_referenceIS2_E4typeE
FNDA:1629,_ZSt7forwardIRK10TestVertexEOT_RNSt16remove_referenceIS3_E4typeE
FNDA:6552,_ZSt7forwardIRK7vector2IfEEOT_RNSt16remove_referenceIS4_E4typeE
FNDA:216,_ZSt7forwardIRKDiEOT_RNSt16remove_referenceIS2_E4typeE
FNDA:2140,_ZSt7forwardIRKN15vectorfontstorm5point5typesEEOT_RNSt16remove_referenceIS5_E4typeE
FNDA:4495,_ZSt7forwardIRKN15vectorfontstorm5pointEEOT_RNSt16remove_referenceIS4_E4typeE
FNDA:24,_ZSt7forwardIRKN15vectorfontstorm7contourI10TestVertexEEEOT_RNSt16remove_referenceIS6_E4typeE
FNDA:930,_ZSt7forwardIRKN15vectorfontstorm7segmentI10TestVertexEEEOT_RNSt16remove_referenceIS6_E4typeE
FNDA:1588,_ZSt7forwardIRKSt10shared_ptrIN3p2t5PointEEEOT_RNSt16remove_referenceIS6_E4typeE
FNDA:18,_ZSt7forwardIRKSt4pairIKDiN15vectorfontstorm5glyphI10TestVertexEEEEOT_RNSt16remove_referenceIS9_E4typeE
FNDA:26448,_ZSt7forwardIRKfEOT_RNSt16remove_referenceIS2_E4typeE
FNDA:2716,_ZSt7forwardIRKjEOT_RNSt16remove_referenceIS2_E4typeE
FNDA:180,_ZSt7forwardIRN15vectorfontstorm5pointEEOT_RNSt16remove_referenceIS3_E4typeE
FNDA:27,_ZSt7forwardIRNSt8__detail14_Node_iteratorISt4pairIKDiN15vectorfontstorm5glyphI10TestVertexEEELb0ELb0EEEEOT_RNSt16remove_referenceISB_E4typeE
FNDA:3074,_ZSt7forwardIRPN3p2t4NodeEEOT_RNSt16remove_referenceIS4_E4typeE
FNDA:0,_ZSt7forwardIRPN3p2t5PointEEOT_RNSt16remove_referenceIS4_E4typeE
FNDA:11274,_ZSt7forwardIRPN3p2t8TriangleEEOT_RNSt16remove_referenceIS4_E4typeE
FNDA:27,_ZSt7forwardIRSt4pairIKDiN15vectorfontstorm5glyphI10TestVertexEEEEOT_RNSt16remove_referenceIS8_E4typeE
FNDA:16700,_ZSt7forwardIRfEOT_RNSt16remove_referenceIS1_E4typeE
FNDA:3010,_ZSt7forwardISt10shared_ptrIN3p2t5PointEEEOT_RNSt16remove_referenceIS4_E4typeE
FNDA:677,_ZSt7forwardIbEOT_RNSt16remove_referenceIS0_E4typeE
FNDA:4280,_ZSt7forwardIdEOT_RNSt16remove_referenceIS0_E4typeE
FNDA:21682,_ZSt7forwardIfEOT_RNSt16remove_referenceIS0_E4typeE
FNDA:15511,_ZSt7forwardIjEOT_RNSt16remove_referenceIS0_E4typeE
FNDA:3379,_ZSt7forwardImEOT_RNSt16remove_referenceIS0_E4typeE
FNDA:10336,_ZSt4moveIR10TestVertexEONSt16remove_referenceIT_E4typeEOS3_
FNDA:2416,_ZSt4moveIRN15vectorfontstorm5pointEEONSt16remove_referenceIT_E4typeEOS4_
FNDA:414,_ZSt4moveIRN15vectorfontstorm7segmentI10TestVertexEEEONSt16remove_referenceIT_E4typeEOS6_
FNDA:618,_ZSt4moveIRN9__gnu_cxx5__ops15_Iter_comp_iterIPFbSt10shared_ptrIN3p2t5PointEES6_EEEEONSt16remove_referenceIT_E4typeEOSC_
FNDA:34,_ZSt4moveIRNSt12_Vector_baseIhSaIhEE12_Vector_implEEONSt16remove_referenceIT_E4typeEOS6_
FNDA:0,_ZSt4moveIRNSt7__cxx114listIPN3p2t8TriangleESaIS4_EEEEONSt16remove_referenceIT_E4typeEOS9_
FNDA:3,_ZSt4moveIRNSt8__detail20_Prime_rehash_policyEEONSt16remove_referenceIT_E4typeEOS4_
FNDA:140,_ZSt4moveIRP10TestVertexEONSt16remove_referenceIT_E4typeEOS4_
FNDA:3,_ZSt4moveIRP11FT_FaceRec_EONSt16remove_referenceIT_E4typeEOS4_
FNDA:3,_ZSt4moveIRP14FT_LibraryRec_EONSt16remove_referenceIT_E4typeEOS4_
FNDA:754,_ZSt4moveIRPFbSt10shared_ptrIN3p2t5PointEES3_EEONSt16remove_referenceIT_E4typeEOS8_
FNDA:12738,_ZSt4moveIRPN3p2t5PointEEONSt16remove_referenceIT_E4typeEOS5_
FNDA:6,_ZSt4moveIRPNSt8__detail15_Hash_node_baseEEONSt16remove_referenceIT_E4typeEOS5_
FNDA:0,_ZSt4moveIRPPNSt8__detail15_Hash_node_baseEEONSt16remove_referenceIT_E4typeEOS6_
FNDA:140,_ZSt4moveIRPjEONSt16remove_referenceIT_E4typeEOS3_
FNDA:0,_ZSt4moveIRSaISt10_List_nodeIPN3p2t8TriangleEEEEONSt16remove_referenceIT_E4typeEOS8_
FNDA:14,_ZSt4moveIRSaIhEEONSt16remove_referenceIT_E4typeEOS3_
FNDA:7992,_ZSt4moveIRSt10shared_ptrIN3p2t5PointEEEONSt16remove_referenceIT_E4typeEOS6_
FNDA:4070,_ZSt4moveIRSt12__shared_ptrIN3p2t5PointELN9__gnu_cxx12_Lock_policyE2EEEONSt16remove_referenceIT_E4typeEOS8_
FNDA:3,_ZSt4moveIRSt4hashIDiEEONSt16remove_referenceIT_E4typeEOS4_
FNDA:14,_ZSt4moveIRSt6vectorIhSaIhEEEONSt16remove_referenceIT_E4typeEOS5_
FNDA:3,_ZSt4moveIRSt8equal_toIDiEEONSt16remove_referenceIT_E4typeEOS4_
FNDA:6,_ZSt4moveIRdEONSt16remove_referenceIT_E4typeEOS2_
FNDA:8,_ZSt4moveIRjEONSt16remove_referenceIT_E4typeEOS2_
FNDA:6,_ZSt4moveIRmEONSt16remove_referenceIT_E4typeEOS2_
FNF:90
FNH:81
DA:51,56414
DA:52,56414
DA:70,173441
DA:71,173441
DA:97,39721
DA:98,39721
DA:138,50
DA:139,50
DA:189,4686
DA:197,4686
DA:198,4686
DA:199,4686
DA:200,4686
LF:13
LH:13
end_of_record
TN:
SF:/usr/include/c++/13/bits/new_allocator.h
FN:104,104,_ZNSt15__new_allocatorI10TestVertexED2Ev
FN:104,104,_ZNSt15__new_allocatorIDiED2Ev
FN:104,104,_ZNSt15__new_allocatorIN15vectorfontstorm5pointEED2Ev
FN:104,104,_ZNSt15__new_allocatorIN15vectorfontstorm7contourI10TestVertexEEED2Ev
FN:104,104,_ZNSt15__new_allocatorIN15vectorfontstorm7segmentI10TestVertexEEED2Ev
FN:104,104,_ZNSt15__new_allocatorINSt8__detail10_Hash_nodeISt4pairIKDiN15vectorfontstorm5glyphI10TestVertexEEELb0EEEED2Ev
FN:104,104,_ZNSt15__new_allocatorIPN3p2t4EdgeEED2Ev
FN:104,104,_ZNSt15__new_allocatorIPN3p2t4NodeEED2Ev
FN:104,104,_ZNSt15__new_allocatorIPN3p2t8TriangleEED2Ev
FN:104,104,_ZNSt15__new_allocatorIPNSt8__detail15_Hash_node_baseEED2Ev
FN:104,104,_ZNSt15__new_allocatorISt10_List_nodeIPN3p2t8TriangleEEED2Ev
FN:104,104,_ZNSt15__new_allocatorISt10shared_ptrIN3p2t5PointEEED2Ev
FN:104,104,_ZNSt15__new_allocatorIcED2Ev
FN:104,104,_ZNSt15__new_allocatorIhED2Ev
FN:104,104,_ZNSt15__new_allocatorIjED2Ev
FN:126,152,_ZNSt15__new_allocatorI10TestVertexE8allocateEmPKv
FN:126,152,_ZNSt15__new_allocatorIDiE8allocateEmPKv
FN:126,152,_ZNSt15__new_allocatorIN15vectorfontstorm5pointEE8allocateEmPKv
FN:126,152,_ZNSt15__new_allocatorIN15vectorfontstorm7contourI10TestVertexEEE8allocateEmPKv
FN:126,152,_ZNSt15__new_allocatorIN15vectorfontstorm7segmentI10TestVertexEEE8allocateEmPKv
FN:126,152,_ZNSt15__new_allocatorINSt8__detail10_Hash_nodeISt4pairIKDiN15vectorfontstorm5glyphI10TestVertexEEELb0EEEE8allocateEmPKv
FN:126,152,_ZNSt15__new_allocatorIPN3p2t4EdgeEE8allocateEmPKv
FN:126,152,_ZNSt15__new_allocatorIPN3p2t4NodeEE8allocateEmPKv
FN:126,152,_ZNSt15__new_allocatorIPN3p2t8TriangleEE8allocateEmPKv
FN:126,152,_ZNSt15__new_allocatorIPNSt8__detail15_Hash_node_baseEE8allocateEmPKv
FN:126,152,_ZNSt15__new_allocatorISt10_List_nodeIPN3p2t8TriangleEEE8allocateEmPKv
FN:126,152,_ZNSt15__new_allocatorISt10shared_ptrIN3p2t5PointEEE8allocateEmPKv
FN:126,152,_ZNSt15__new_allocatorIhE8allocateEmPKv
FN:126,152,_ZNSt15__new_allocatorIjE8allocateEmPKv
FN:156,173,_ZNSt15__new_allocatorI10TestVertexE10deallocateEPS0_m
FN:156,173,_ZNSt15__new_allocatorIDiE10deallocateEPDim
FN:156,173,_ZNSt15__new_allocatorIN15vectorfontstorm5pointEE10deallocateEPS1_m
FN:156,173,_ZNSt15__new_allocatorIN15vectorfontstorm7contourI10TestVertexEEE10deallocateEPS3_m
FN:156,173,_ZNSt15__new_allocatorIN15vectorfontstorm7segmentI10TestVertexEEE10deallocateEPS3_m
FN:156,173,_ZNSt15__new_allocatorINSt8__detail10_Hash_nodeISt4pairIKDiN15vectorfontstorm5glyphI10TestVertexEEELb0EEEE10deallocateEPS9_m
FN:156,173,_ZNSt15__new_allocatorIPN3p2t4EdgeEE10deallocateEPS2_m
FN:156,173,_ZNSt15__new_allocatorIPN3p2t4NodeEE10deallocateEPS2_m
FN:156,173,_ZNSt15__new_allocatorIPN3p2t8TriangleEE10deallocateEPS2_m
FN:156,173,_ZNSt15__new_allocatorIPNSt8__detail15_Hash_node_baseEE10deallocateEPS2_m
FN:156,173,_ZNSt15__new_allocatorISt10_List_nodeIPN3p2t8TriangleEEE10deallocateEPS4_m
FN:156,173,_ZNSt15__new_allocatorISt10shared_ptrIN3p2t5PointEEE10deallocateEPS3_m
FN:156,173,_ZNSt15__new_allocatorIhE10deallocateEPhm
FN:156,173,_ZNSt15__new_allocatorIjE10deallocateEPjm
FNDA:388,_ZNSt15__new_allocatorI10TestVertexED2Ev
FNDA:8,_ZNSt15__new_allocatorIDiED2Ev
FNDA:3343,_ZNSt15__new_allocatorIN15vectorfontstorm5pointEED2Ev
FNDA:86,_ZNSt15__new_allocatorIN15vectorfontstorm7contourI10TestVertexEEED2Ev
FNDA:765,_ZNSt15__new_allocatorIN15vectorfontstorm7segmentI10TestVertexEEED2Ev
FNDA:19,_ZNSt15__new_allocatorINSt8__detail10_Hash_nodeISt4pairIKDiN15vectorfontstorm5glyphI10TestVertexEEELb0EEEED2Ev
FNDA:1172,_ZNSt15__new_allocatorIPN3p2t4EdgeEED2Ev
FNDA:68,_ZNSt15__new_allocatorIPN3p2t4NodeEED2Ev
FNDA:136,_ZNSt15__new_allocatorIPN3p2t8TriangleEED2Ev
FNDA:30,_ZNSt15__new_allocatorIPNSt8__detail15_Hash_node_baseEED2Ev
FNDA:68,_ZNSt15__new_allocatorISt10_List_nodeIPN3p2t8TriangleEEED2Ev
FNDA:158,_ZNSt15__new_allocatorISt10shared_ptrIN3p2t5PointEEED2Ev
FNDA:1356,_ZNSt15__new_allocatorIcED2Ev
FNDA:110,_ZNSt15__new_allocatorIhED2Ev
FNDA:388,_ZNSt15__new_allocatorIjED2Ev
FNDA:787,_ZNSt15__new_allocatorI10TestVertexE8allocateEmPKv
FNDA:2,_ZNSt15__new_allocatorIDiE8allocateEmPKv
FNDA:3666,_ZNSt15__new_allocatorIN15vectorfontstorm5pointEE8allocateEmPKv
FNDA:45,_ZNSt15__new_allocatorIN15vectorfontstorm7contourI10TestVertexEEE8allocateEmPKv
FNDA:911,_ZNSt15__new_allocatorIN15vectorfontstorm7segmentI10TestVertexEEE8allocateEmPKv
FNDA:27,_ZNSt15__new_allocatorINSt8__detail10_Hash_nodeISt4pairIKDiN15vectorfontstorm5glyphI10TestVertexEEELb0EEEE8allocateEmPKv
FNDA:1322,_ZNSt15__new_allocatorIPN3p2t4EdgeEE8allocateEmPKv
FNDA:338,_ZNSt15__new_allocatorIPN3p2t4NodeEE8allocateEmPKv
FNDA:560,_ZNSt15__new_allocatorIPN3p2t8TriangleEE8allocateEmPKv
FNDA:15,_ZNSt15__new_allocatorIPNSt8__detail15_Hash_node_baseEE8allocateEmPKv
FNDA:1658,_ZNSt15__new_allocatorISt10_List_nodeIPN3p2t8TriangleEEE8allocateEmPKv
FNDA:484,_ZNSt15__new_allocatorISt10shared_ptrIN3p2t5PointEEE8allocateEmPKv
FNDA:17,_ZNSt15__new_allocatorIhE8allocateEmPKv
FNDA:786,_ZNSt15__new_allocatorIjE8allocateEmPKv
FNDA:787,_ZNSt15__new_allocatorI10TestVertexE10deallocateEPS0_m
FNDA:2,_ZNSt15__new_allocatorIDiE10deallocateEPDim
FNDA:3666,_ZNSt15__new_allocatorIN15vectorfontstorm5pointEE10deallocateEPS1_m
FNDA:45,_ZNSt15__new_allocatorIN15vectorfontstorm7contourI10TestVertexEEE10deallocateEPS3_m
FNDA:911,_ZNSt15__new_allocatorIN15vectorfontstorm7segmentI10TestVertexEEE10deallocateEPS3_m
FNDA:27,_ZNSt15__new_allocatorINSt8__detail10_Hash_nodeISt4pairIKDiN15vectorfontstorm5glyphI10TestVertexEEELb0EEEE10deallocateEPS9_m
FNDA:661,_ZNSt15__new_allocatorIPN3p2t4EdgeEE10deallocateEPS2_m
FNDA:338,_ZNSt15__new_allocatorIPN3p2t4NodeEE10deallocateEPS2_m
FNDA:560,_ZNSt15__new_allocatorIPN3p2t8TriangleEE10deallocateEPS2_m
FNDA:15,_ZNSt15__new_allocatorIPNSt8__detail15_Hash_node_baseEE10deallocateEPS2_m
FNDA:1658,_ZNSt15__new_allocatorISt10_List_nodeIPN3p2t8TriangleEEE10deallocateEPS4_m
FNDA:484,_ZNSt15__new_allocatorISt10shared_ptrIN3p2t5PointEEE10deallocateEPS3_m
FNDA:17,_ZNSt15__new_allocatorIhE10deallocateEPhm
FNDA:786,_ZNSt15__new_allocatorIjE10deallocateEPjm
FNF:43
FNH:43
DA:88,3922
DA:92,2893
DA:104,8095
DA:126,10618
DA:134,10618
DA:138,0
DA:139,0
DA:140,0
DA:151,10618
DA:156,9957
DA:172,9957
DA:183,15459
DA:191,39842
DA:198,17079
DA:233,26077
LF:15
LH:12
end_of_record
TN:
SF:/usr/include/c++/13/bits/postypes.h
FN:103,104,_ZNSt4fposI11__mbstate_tEC2El
FN:113,113,_ZNKSt4fposI11__mbstate_tEcvlEv
FNDA:17,_ZNSt4fposI11__mbstate_tEC2El
FNDA:17,_ZNKSt4fposI11__mbstate_tEcvlEv
FNF:2
FNH:2
DA:103,17
DA:104,17
DA:113,17
LF:3
LH:3
end_of_record
TN:
SF:/usr/include/c++/13/bits/predefined_ops.h
FN:150,152,_ZN9__gnu_cxx5__ops15_Iter_comp_iterIPFbSt10shared_ptrIN3p2t5PointEES5_EEC2ES7_
FN:157,158,_ZN9__gnu_cxx5__ops15_Iter_comp_iterIPFbSt10shared_ptrIN3p2t5PointEES5_EEclINS_17__normal_iteratorIPS5_St6vectorIS5_SaIS5_EEEESF_EEbT_T0_
FN:164,165,_ZN9__gnu_cxx5__ops16__iter_comp_iterIPFbSt10shared_ptrIN3p2t5PointEES5_EEENS0_15_Iter_comp_iterIT_EES9_
FN:187,189,_ZN9__gnu_cxx5__ops14_Iter_comp_valIPFbSt10shared_ptrIN3p2t5PointEES5_EEC2EONS0_15_Iter_comp_iterIS7_EE
FN:195,196,_ZN9__gnu_cxx5__ops14_Iter_comp_valIPFbSt10shared_ptrIN3p2t5PointEES5_EEclINS_17__normal_iteratorIPS5_St6vectorIS5_SaIS5_EEEES5_EEbT_RT0_
FN:231,233,_ZN9__gnu_cxx5__ops14_Val_comp_iterIPFbSt10shared_ptrIN3p2t5PointEES5_EEC2EONS0_15_Iter_comp_iterIS7_EE
FN:239,240,_ZN9__gnu_cxx5__ops14_Val_comp_iterIPFbSt10shared_ptrIN3p2t5PointEES5_EEclIS5_NS_17__normal_iteratorIPS5_St6vectorIS5_SaIS5_EEEEEEbRT_T0_
FN:252,253,_ZN9__gnu_cxx5__ops15__val_comp_iterIPFbSt10shared_ptrIN3p2t5PointEES5_EEENS0_14_Val_comp_iterIT_EENS0_15_Iter_comp_iterIS9_EE
FNDA:68,_ZN9__gnu_cxx5__ops15_Iter_comp_iterIPFbSt10shared_ptrIN3p2t5PointEES5_EEC2ES7_
FNDA:1704,_ZN9__gnu_cxx5__ops15_Iter_comp_iterIPFbSt10shared_ptrIN3p2t5PointEES5_EEclINS_17__normal_iteratorIPS5_St6vectorIS5_SaIS5_EEEESF_EEbT_T0_
FNDA:68,_ZN9__gnu_cxx5__ops16__iter_comp_iterIPFbSt10shared_ptrIN3p2t5PointEES5_EEENS0_15_Iter_comp_iterIT_EES9_
FNDA:0,_ZN9__gnu_cxx5__ops14_Iter_comp_valIPFbSt10shared_ptrIN3p2t5PointEES5_EEC2EONS0_15_Iter_comp_iterIS7_EE
FNDA:0,_ZN9__gnu_cxx5__ops14_Iter_comp_valIPFbSt10shared_ptrIN3p2t5PointEES5_EEclINS_17__normal_iteratorIPS5_St6vectorIS5_SaIS5_EEEES5_EEbT_RT0_
FNDA:618,_ZN9__gnu_cxx5__ops14_Val_comp_iterIPFbSt10shared_ptrIN3p2t5PointEES5_EEC2EONS0_15_Iter_comp_iterIS7_EE
FNDA:2152,_ZN9__gnu_cxx5__ops14_Val_comp_iterIPFbSt10shared_ptrIN3p2t5PointEES5_EEclIS5_NS_17__normal_iteratorIPS5_St6vectorIS5_SaIS5_EEEEEEbRT_T0_
FNDA:618,_ZN9__gnu_cxx5__ops15__val_comp_iterIPFbSt10shared_ptrIN3p2t5PointEES5_EEENS0_14_Val_comp_iterIT_EENS0_15_Iter_comp_iterIS9_EE
FNF:8
FNH:6
DA:150,68
DA:151,68
DA:152,68
DA:157,1704
DA:158,1704
DA:164,68
DA:165,68
DA:187,0
DA:188,0
DA:189,0
DA:195,0
DA:196,0
DA:231,618
DA:232,618
DA:233,618
DA:239,2152
DA:240,2152
DA:252,618
DA:253,618
LF:19
LH:14
end_of_record
TN:
SF:/usr/include/c++/13/bits/ptr_traits.h
FN:141,142,_ZNSt19__ptr_traits_ptr_toIPDiDiLb0EE10pointer_toERDi
FN:141,142,_ZNSt19__ptr_traits_ptr_toIPKDiS0_Lb0EE10pointer_toERS0_
FN:141,142,_ZNSt19__ptr_traits_ptr_toIPNSt8__detail10_Hash_nodeISt4pairIKDiN15vectorfontstorm5glyphI10TestVertexEEELb0EEES9_Lb0EE10pointer_toERS9_
FN:141,142,_ZNSt19__ptr_traits_ptr_toIPPNSt8__detail15_Hash_node_baseES2_Lb0EE10pointer_toERS2_
FN:212,216,_ZSt12__to_addressINSt8__detail10_Hash_nodeISt4pairIKDiN15vectorfontstorm5glyphI10TestVertexEEELb0EEEEPT_SB_
FN:212,216,_ZSt12__to_addressIPNSt8__detail15_Hash_node_baseEEPT_S4_
FNDA:4,_ZNSt19__ptr_traits_ptr_toIPDiDiLb0EE10pointer_toERDi
FNDA:4,_ZNSt19__ptr_traits_ptr_toIPKDiS0_Lb0EE10pointer_toERS0_
FNDA:27,_ZNSt19__ptr_traits_ptr_toIPNSt8__detail10_Hash_nodeISt4pairIKDiN15vectorfontstorm5glyphI10TestVertexEEELb0EEES9_Lb0EE10pointer_toERS9_
FNDA:15,_ZNSt19__ptr_traits_ptr_toIPPNSt8__detail15_Hash_node_baseES2_Lb0EE10pointer_toERS2_
FNDA:27,_ZSt12__to_addressINSt8__detail10_Hash_nodeISt4pairIKDiN15vectorfontstorm5glyphI10TestVertexEEELb0EEEEPT_SB_
FNDA:15,_ZSt12__to_addressIPNSt8__detail15_Hash_node_baseEEPT_S4_
FNF:6
FNH:6
DA:141,50
DA:142,50
DA:212,42
DA:215,42
LF:4
LH:4
end_of_record
TN:
SF:/usr/include/c++/13/bits/shared_ptr.h
FN:204,204,_ZNSt10shared_ptrIN3p2t5PointEEC2ERKS2_
FN:214,214,_ZNSt10shared_ptrIN3p2t5PointEEC2IS1_vEEPT_
FN:359,360,_ZNSt10shared_ptrIN3p2t5PointEEC2EOS2_
FN:438,442,_ZNSt10shared_ptrIN3p2t5PointEEaSEOS2_
FN:692,693,_ZSt4swapIN3p2t5PointEEvRSt10shared_ptrIT_ES5_
FNDA:8692,_ZNSt10shared_ptrIN3p2t5PointEEC2ERKS2_
FNDA:1070,_ZNSt10shared_ptrIN3p2t5PointEEC2IS1_vEEPT_
FNDA:1961,_ZNSt10shared_ptrIN3p2t5PointEEC2EOS2_
FNDA:4070,_ZNSt10shared_ptrIN3p2t5PointEEaSEOS2_
FNDA:176,_ZSt4swapIN3p2t5PointEEvRSt10shared_ptrIT_ES5_
FNF:5
FNH:5
DA:204,8692
DA:214,1070
DA:359,1961
DA:360,1961
DA:438,4070
DA:440,4070
DA:441,4070
DA:692,176
DA:693,176
LF:9
LH:9
end_of_record
TN:
SF:/usr/include/c++/13/bits/shared_ptr_base.h
FN:1068,1072,_ZNSt14__shared_countILN9__gnu_cxx12_Lock_policyE2EED2Ev
FN:1074,1079,_ZNSt14__shared_countILN9__gnu_cxx12_Lock_policyE2EEC2ERKS2_
FN:1097,1102,_ZNSt14__shared_countILN9__gnu_cxx12_Lock_policyE2EE7_M_swapERS2_
FN:129,130,_ZNSt16_Sp_counted_baseILN9__gnu_cxx12_Lock_policyE2EEC2Ev
FN:133,134,_ZNSt16_Sp_counted_baseILN9__gnu_cxx12_Lock_policyE2EED0Ev
FN:133,134,_ZNSt16_Sp_counted_baseILN9__gnu_cxx12_Lock_policyE2EED2Ev
FN:1347,1351,_ZNKSt19__shared_ptr_accessIN3p2t5PointELN9__gnu_cxx12_Lock_policyE2ELb0ELb0EEdeEv
FN:1354,1358,_ZNKSt19__shared_ptr_accessIN3p2t5PointELN9__gnu_cxx12_Lock_policyE2ELb0ELb0EEptEv
FN:1362,1363,_ZNKSt19__shared_ptr_accessIN3p2t5PointELN9__gnu_cxx12_Lock_policyE2ELb0ELb0EE6_M_getEv
FN:143,144,_ZNSt16_Sp_counted_baseILN9__gnu_cxx12_Lock_policyE2EE10_M_destroyEv
FN:1468,1474,_ZNSt12__shared_ptrIN3p2t5PointELN9__gnu_cxx12_Lock_policyE2EEC2IS1_vEEPT_
FN:151,152,_ZNSt16_Sp_counted_baseILN9__gnu_cxx12_Lock_policyE2EE15_M_add_ref_copyEv
FN:1522,1522,_ZNSt12__shared_ptrIN3p2t5PointELN9__gnu_cxx12_Lock_policyE2EEC2ERKS4_
FN:1524,1524,_ZNSt12__shared_ptrIN3p2t5PointELN9__gnu_cxx12_Lock_policyE2EED2Ev
FN:1531,1536,_ZNSt12__shared_ptrIN3p2t5PointELN9__gnu_cxx12_Lock_policyE2EEC2EOS4_
FN:1618,1622,_ZNSt12__shared_ptrIN3p2t5PointELN9__gnu_cxx12_Lock_policyE2EEaSEOS4_
FN:1665,1666,_ZNKSt12__shared_ptrIN3p2t5PointELN9__gnu_cxx12_Lock_policyE2EE3getEv
FN:1684,1688,_ZNSt12__shared_ptrIN3p2t5PointELN9__gnu_cxx12_Lock_policyE2EE4swapERS4_
FN:172,193,_ZNSt16_Sp_counted_baseILN9__gnu_cxx12_Lock_policyE2EE19_M_release_last_useEv
FN:1765,1766,_ZNSt12__shared_ptrIN3p2t5PointELN9__gnu_cxx12_Lock_policyE2EE31_M_enable_shared_from_this_withIS1_S1_EENSt9enable_ifIXntsrNS4_15__has_esft_baseIT0_vEE5valueEvE4typeEPT_
FN:198,199,_ZNSt16_Sp_counted_baseILN9__gnu_cxx12_Lock_policyE2EE24_M_release_last_use_coldEv
FN:317,363,_ZNSt16_Sp_counted_baseILN9__gnu_cxx12_Lock_policyE2EE10_M_releaseEv
FN:423,424,_ZNSt15_Sp_counted_ptrIPN3p2t5PointELN9__gnu_cxx12_Lock_policyE2EEC2ES2_
FN:427,428,_ZNSt15_Sp_counted_ptrIPN3p2t5PointELN9__gnu_cxx12_Lock_policyE2EE10_M_disposeEv
FN:431,432,_ZNSt15_Sp_counted_ptrIPN3p2t5PointELN9__gnu_cxx12_Lock_policyE2EE10_M_destroyEv
FN:435,436,_ZNSt15_Sp_counted_ptrIPN3p2t5PointELN9__gnu_cxx12_Lock_policyE2EE14_M_get_deleterERKSt9type_info
FN:908,909,_ZNSt14__shared_countILN9__gnu_cxx12_Lock_policyE2EEC2Ev
FN:913,924,_ZNSt14__shared_countILN9__gnu_cxx12_Lock_policyE2EEC2IPN3p2t5PointEEET_
FN:927,929,_ZNSt14__shared_countILN9__gnu_cxx12_Lock_policyE2EEC2IPN3p2t5PointEEET_St17integral_constantIbLb0EE
FNDA:16432,_ZNSt14__shared_countILN9__gnu_cxx12_Lock_policyE2EED2Ev
FNDA:9593,_ZNSt14__shared_countILN9__gnu_cxx12_Lock_policyE2EEC2ERKS2_
FNDA:11657,_ZNSt14__shared_countILN9__gnu_cxx12_Lock_policyE2EE7_M_swapERS2_
FNDA:2110,_ZNSt16_Sp_counted_baseILN9__gnu_cxx12_Lock_policyE2EEC2Ev
FNDA:0,_ZNSt16_Sp_counted_baseILN9__gnu_cxx12_Lock_policyE2EED0Ev
FNDA:2110,_ZNSt16_Sp_counted_baseILN9__gnu_cxx12_Lock_policyE2EED2Ev
FNDA:1684,_ZNKSt19__shared_ptr_accessIN3p2t5PointELN9__gnu_cxx12_Lock_policyE2ELb0ELb0EEdeEv
FNDA:11930,_ZNKSt19__shared_ptr_accessIN3p2t5PointELN9__gnu_cxx12_Lock_policyE2ELb0ELb0EEptEv
FNDA:13614,_ZNKSt19__shared_ptr_accessIN3p2t5PointELN9__gnu_cxx12_Lock_policyE2ELb0ELb0EE6_M_getEv
FNDA:0,_ZNSt16_Sp_counted_baseILN9__gnu_cxx12_Lock_policyE2EE10_M_destroyEv
FNDA:1070,_ZNSt12__shared_ptrIN3p2t5PointELN9__gnu_cxx12_Lock_policyE2EEC2IS1_vEEPT_
FNDA:9699,_ZNSt16_Sp_counted_baseILN9__gnu_cxx12_Lock_policyE2EE15_M_add_ref_copyEv
FNDA:8692,_ZNSt12__shared_ptrIN3p2t5PointELN9__gnu_cxx12_Lock_policyE2EEC2ERKS4_
FNDA:9412,_ZNSt12__shared_ptrIN3p2t5PointELN9__gnu_cxx12_Lock_policyE2EED2Ev
FNDA:3996,_ZNSt12__shared_ptrIN3p2t5PointELN9__gnu_cxx12_Lock_policyE2EEC2EOS4_
FNDA:4070,_ZNSt12__shared_ptrIN3p2t5PointELN9__gnu_cxx12_Lock_policyE2EEaSEOS4_
FNDA:14070,_ZNKSt12__shared_ptrIN3p2t5PointELN9__gnu_cxx12_Lock_policyE2EE3getEv
FNDA:4246,_ZNSt12__shared_ptrIN3p2t5PointELN9__gnu_cxx12_Lock_policyE2EE4swapERS4_
FNDA:0,_ZNSt16_Sp_counted_baseILN9__gnu_cxx12_Lock_policyE2EE19_M_release_last_useEv
FNDA:1070,_ZNSt12__shared_ptrIN3p2t5PointELN9__gnu_cxx12_Lock_policyE2EE31_M_enable_shared_from_this_withIS1_S1_EENSt9enable_ifIXntsrNS4_15__has_esft_baseIT0_vEE5valueEvE4typeEPT_
FNDA:0,_ZNSt16_Sp_counted_baseILN9__gnu_cxx12_Lock_policyE2EE24_M_release_last_use_coldEv
FNDA:6950,_ZNSt16_Sp_counted_baseILN9__gnu_cxx12_Lock_policyE2EE10_M_releaseEv
FNDA:1070,_ZNSt15_Sp_counted_ptrIPN3p2t5PointELN9__gnu_cxx12_Lock_policyE2EEC2ES2_
FNDA:1070,_ZNSt15_Sp_counted_ptrIPN3p2t5PointELN9__gnu_cxx12_Lock_policyE2EE10_M_disposeEv
FNDA:1070,_ZNSt15_Sp_counted_ptrIPN3p2t5PointELN9__gnu_cxx12_Lock_policyE2EE10_M_destroyEv
FNDA:0,_ZNSt15_Sp_counted_ptrIPN3p2t5PointELN9__gnu_cxx12_Lock_policyE2EE14_M_get_deleterERKSt9type_info
FNDA:9534,_ZNSt14__shared_countILN9__gnu_cxx12_Lock_policyE2EEC2Ev
FNDA:1070,_ZNSt14__shared_countILN9__gnu_cxx12_Lock_policyE2EEC2IPN3p2t5PointEEET_
FNDA:1070,_ZNSt14__shared_countILN9__gnu_cxx12_Lock_policyE2EEC2IPN3p2t5PointEEET_St17integral_constantIbLb0EE
FNF:29
FNH:24
DA:129,2110
DA:130,2110
DA:133,2110
DA:134,2110
DA:143,0
DA:144,0
DA:151,9699
DA:152,9699
DA:172,0
DA:175,0
DA:187,0
DA:188,0
DA:191,0
DA:193,0
DA:198,0
DA:199,0
DA:317,6950
DA:321,6950
DA:324,6950
DA:328,6950
DA:331,6950
DA:332,6950
DA:333,6950
DA:334,6950
DA:337,6950
DA:343,2110
DA:346,2110
DA:347,2110
DA:348,2110
DA:350,9680
DA:351,0
DA:353,0
DA:354,0
DA:423,1070
DA:424,1070
DA:427,1070
DA:428,1070
DA:431,1070
DA:432,1070
DA:435,0
DA:436,0
DA:908,9534
DA:909,9534
DA:913,1070
DA:917,1070
DA:919,0
DA:921,0
DA:922,0
DA:924,1070
DA:927,1070
DA:928,1070
DA:929,1070
DA:1068,16432
DA:1070,16432
DA:1071,6924
DA:1072,16432
DA:1074,9593
DA:1075,9593
DA:1077,9593
DA:1078,9593
DA:1079,9593
DA:1097,11657
DA:1099,11657
DA:1100,11657
DA:1101,11657
DA:1102,11657
DA:1347,1684
DA:1349,1684
DA:1350,1684
DA:1354,11930
DA:1357,11930
DA:1362,13614
DA:1363,13614
DA:1468,1070
DA:1469,1070
DA:1473,1070
DA:1474,1070
DA:1522,8692
DA:1524,9412
DA:1531,3996
DA:1532,3996
DA:1534,3996
DA:1535,3996
DA:1536,3996
DA:1618,4070
DA:1620,4070
DA:1621,4070
DA:1665,14070
DA:1666,14070
DA:1684,4246
DA:1686,4246
DA:1687,4246
DA:1688,4246
DA:1765,1070
DA:1766,1070
LF:95
LH:77
end_of_record
TN:
SF:/usr/include/c++/13/bits/stl_algo.h
FN:1102,1114,_ZSt9__reverseIN9__gnu_cxx17__normal_iteratorIPN15vectorfontstorm5pointESt6vectorIS3_SaIS3_EEEEEvT_S9_St26random_access_iterator_tag
FN:1102,1114,_ZSt9__reverseIN9__gnu_cxx17__normal_iteratorIPN15vectorfontstorm7segmentI10TestVertexEESt6vectorIS5_SaIS5_EEEEEvT_SB_St26random_access_iterator_tag
FN:1131,1138,_ZSt7reverseIN9__gnu_cxx17__normal_iteratorIPN15vectorfontstorm5pointESt6vectorIS3_SaIS3_EEEEEvT_S9_
FN:1131,1138,_ZSt7reverseIN9__gnu_cxx17__normal_iteratorIPN15vectorfontstorm7segmentI10TestVertexEESt6vectorIS5_SaIS5_EEEEEvT_SB_
FN:1631,1639,_ZSt13__heap_selectIN9__gnu_cxx17__normal_iteratorIPSt10shared_ptrIN3p2t5PointEESt6vectorIS5_SaIS5_EEEENS0_5__ops15_Iter_comp_iterIPFbS5_S5_EEEEvT_SG_SG_T0_
FN:1792,1806,_ZSt25__unguarded_linear_insertIN9__gnu_cxx17__normal_iteratorIPSt10shared_ptrIN3p2t5PointEESt6vectorIS5_SaIS5_EEEENS0_5__ops14_Val_comp_iterIPFbS5_S5_EEEEvT_T0_
FN:1812,1830,_ZSt16__insertion_sortIN9__gnu_cxx17__normal_iteratorIPSt10shared_ptrIN3p2t5PointEESt6vectorIS5_SaIS5_EEEENS0_5__ops15_Iter_comp_iterIPFbS5_S5_EEEEvT_SG_T0_
FN:1836,1842,_ZSt26__unguarded_insertion_sortIN9__gnu_cxx17__normal_iteratorIPSt10shared_ptrIN3p2t5PointEESt6vectorIS5_SaIS5_EEEENS0_5__ops15_Iter_comp_iterIPFbS5_S5_EEEEvT_SG_T0_
FN:1854,1865,_ZSt22__final_insertion_sortIN9__gnu_cxx17__normal_iteratorIPSt10shared_ptrIN3p2t5PointEESt6vectorIS5_SaIS5_EEEENS0_5__ops15_Iter_comp_iterIPFbS5_S5_EEEEvT_SG_T0_
FN:1871,1887,_ZSt21__unguarded_partitionIN9__gnu_cxx17__normal_iteratorIPSt10shared_ptrIN3p2t5PointEESt6vectorIS5_SaIS5_EEEENS0_5__ops15_Iter_comp_iterIPFbS5_S5_EEEET_SG_SG_SG_T0_
FN:1893,1900,_ZSt27__unguarded_partition_pivotIN9__gnu_cxx17__normal_iteratorIPSt10shared_ptrIN3p2t5PointEESt6vectorIS5_SaIS5_EEEENS0_5__ops15_Iter_comp_iterIPFbS5_S5_EEEET_SG_SG_T0_
FN:1905,1912,_ZSt14__partial_sortIN9__gnu_cxx17__normal_iteratorIPSt10shared_ptrIN3p2t5PointEESt6vectorIS5_SaIS5_EEEENS0_5__ops15_Iter_comp_iterIPFbS5_S5_EEEEvT_SG_SG_T0_
FN:1918,1935,_ZSt16__introsort_loopIN9__gnu_cxx17__normal_iteratorIPSt10shared_ptrIN3p2t5PointEESt6vectorIS5_SaIS5_EEEElNS0_5__ops15_Iter_comp_iterIPFbS5_S5_EEEEvT_SG_T0_T1_
FN:1942,1952,_ZSt6__sortIN9__gnu_cxx17__normal_iteratorIPSt10shared_ptrIN3p2t5PointEESt6vectorIS5_SaIS5_EEEENS0_5__ops15_Iter_comp_iterIPFbS5_S5_EEEEvT_SG_T0_
FN:4882,4895,_ZSt4sortIN9__gnu_cxx17__normal_iteratorIPSt10shared_ptrIN3p2t5PointEESt6vectorIS5_SaIS5_EEEEPFbS5_S5_EEvT_SD_T0_
FN:85,103,_ZSt22__move_median_to_firstIN9__gnu_cxx17__normal_iteratorIPSt10shared_ptrIN3p2t5PointEESt6vectorIS5_SaIS5_EEEENS0_5__ops15_Iter_comp_iterIPFbS5_S5_EEEEvT_SG_SG_SG_T0_
FNDA:291,_ZSt9__reverseIN9__gnu_cxx17__normal_iteratorIPN15vectorfontstorm5pointESt6vectorIS3_SaIS3_EEEEEvT_S9_St26random_access_iterator_tag
FNDA:26,_ZSt9__reverseIN9__gnu_cxx17__normal_iteratorIPN15vectorfontstorm7segmentI10TestVertexEESt6vectorIS5_SaIS5_EEEEEvT_SB_St26random_access_iterator_tag
FNDA:291,_ZSt7reverseIN9__gnu_cxx17__normal_iteratorIPN15vectorfontstorm5pointESt6vectorIS3_SaIS3_EEEEEvT_S9_
FNDA:26,_ZSt7reverseIN9__gnu_cxx17__normal_iteratorIPN15vectorfontstorm7segmentI10TestVertexEESt6vectorIS5_SaIS5_EEEEEvT_SB_
FNDA:0,_ZSt13__heap_selectIN9__gnu_cxx17__normal_iteratorIPSt10shared_ptrIN3p2t5PointEESt6vectorIS5_SaIS5_EEEENS0_5__ops15_Iter_comp_iterIPFbS5_S5_EEEEvT_SG_SG_T0_
FNDA:618,_ZSt25__unguarded_linear_insertIN9__gnu_cxx17__normal_iteratorIPSt10shared_ptrIN3p2t5PointEESt6vectorIS5_SaIS5_EEEENS0_5__ops14_Val_comp_iterIPFbS5_S5_EEEEvT_T0_
FNDA:68,_ZSt16__insertion_sortIN9__gnu_cxx17__normal_iteratorIPSt10shared_ptrIN3p2t5PointEESt6vectorIS5_SaIS5_EEEENS0_5__ops15_Iter_comp_iterIPFbS5_S5_EEEEvT_SG_T0_
FNDA:18,_ZSt26__unguarded_insertion_sortIN9__gnu_cxx17__normal_iteratorIPSt10shared_ptrIN3p2t5PointEESt6vectorIS5_SaIS5_EEEENS0_5__ops15_Iter_comp_iterIPFbS5_S5_EEEEvT_SG_T0_
FNDA:68,_ZSt22__final_insertion_sortIN9__gnu_cxx17__normal_iteratorIPSt10shared_ptrIN3p2t5PointEESt6vectorIS5_SaIS5_EEEENS0_5__ops15_Iter_comp_iterIPFbS5_S5_EEEEvT_SG_T0_
FNDA:36,_ZSt21__unguarded_partitionIN9__gnu_cxx17__normal_iteratorIPSt10shared_ptrIN3p2t5PointEESt6vectorIS5_SaIS5_EEEENS0_5__ops15_Iter_comp_iterIPFbS5_S5_EEEET_SG_SG_SG_T0_
FNDA:36,_ZSt27__unguarded_partition_pivotIN9__gnu_cxx17__normal_iteratorIPSt10shared_ptrIN3p2t5PointEESt6vectorIS5_SaIS5_EEEENS0_5__ops15_Iter_comp_iterIPFbS5_S5_EEEET_SG_SG_T0_
FNDA:0,_ZSt14__partial_sortIN9__gnu_cxx17__normal_iteratorIPSt10shared_ptrIN3p2t5PointEESt6vectorIS5_SaIS5_EEEENS0_5__ops15_Iter_comp_iterIPFbS5_S5_EEEEvT_SG_SG_T0_
FNDA:104,_ZSt16__introsort_loopIN9__gnu_cxx17__normal_iteratorIPSt10shared_ptrIN3p2t5PointEESt6vectorIS5_SaIS5_EEEElNS0_5__ops15_Iter_comp_iterIPFbS5_S5_EEEEvT_SG_T0_T1_
FNDA:68,_ZSt6__sortIN9__gnu_cxx17__normal_iteratorIPSt10shared_ptrIN3p2t5PointEESt6vectorIS5_SaIS5_EEEENS0_5__ops15_Iter_comp_iterIPFbS5_S5_EEEEvT_SG_T0_
FNDA:68,_ZSt4sortIN9__gnu_cxx17__normal_iteratorIPSt10shared_ptrIN3p2t5PointEESt6vectorIS5_SaIS5_EEEEPFbS5_S5_EEvT_SD_T0_
FNDA:36,_ZSt22__move_median_to_firstIN9__gnu_cxx17__normal_iteratorIPSt10shared_ptrIN3p2t5PointEESt6vectorIS5_SaIS5_EEEENS0_5__ops15_Iter_comp_iterIPFbS5_S5_EEEEvT_SG_SG_SG_T0_
FNF:16
FNH:14
DA:85,36
DA:88,36
DA:90,10
DA:91,4
DA:92,6
DA:93,0
DA:95,6
DA:97,26
DA:98,8
DA:99,18
DA:100,4
DA:102,14
DA:103,36
DA:1102,317
DA:1105,317
DA:1106,0
DA:1107,317
DA:1108,746
DA:1110,429
DA:1111,429
DA:1112,429
DA:1131,317
DA:1137,317
DA:1138,317
DA:1631,0
DA:1635,0
DA:1636,0
DA:1637,0
DA:1638,0
DA:1639,0
DA:1792,618
DA:1796,618
DA:1797,618
DA:1798,618
DA:1799,2152
DA:1801,1534
DA:1802,1534
DA:1803,1534
DA:1805,618
DA:1806,618
DA:1812,68
DA:1815,68
DA:1817,776
DA:1819,708
DA:1822,294
DA:1823,294
DA:1824,294
DA:1825,294
DA:1827,414
DA:1836,18
DA:1839,222
DA:1840,204
DA:1842,18
DA:1854,68
DA:1857,68
DA:1859,18
DA:1860,18
DA:1864,50
DA:1865,68
DA:1871,36
DA:1877,590
DA:1878,414
DA:1879,176
DA:1880,310
DA:1881,134
DA:1882,176
DA:1883,36
DA:1884,140
DA:1885,140
DA:1893,36
DA:1896,36
DA:1897,36
DA:1899,72
DA:1905,0
DA:1910,0
DA:1911,0
DA:1912,0
DA:1918,104
DA:1922,140
DA:1924,36
DA:1926,0
DA:1927,0
DA:1929,36
DA:1931,36
DA:1932,36
DA:1933,36
DA:1942,68
DA:1945,68
DA:1947,68
DA:1948,68
DA:1950,68
DA:1952,68
DA:4882,68
DA:4894,68
DA:4895,68
LF:95
LH:81
end_of_record
TN:
SF:/usr/include/c++/13/bits/stl_algobase.h
FN:1018,1018,_ZSt17__size_to_integerm
FN:1117,1130,_ZSt10__fill_n_aIPhmhET_S1_T0_RKT1_St26random_access_iterator_tag
FN:1152,1159,_ZSt6fill_nIPhmhET_S1_T0_RKT1_
FN:1515,1528,_ZSt4__lgIlET_S0_
FN:155,187,_ZSt9iter_swapIN9__gnu_cxx17__normal_iteratorIPN15vectorfontstorm5pointESt6vectorIS3_SaIS3_EEEES8_EvT_T0_
FN:155,187,_ZSt9iter_swapIN9__gnu_cxx17__normal_iteratorIPN15vectorfontstorm7segmentI10TestVertexEESt6vectorIS5_SaIS5_EEEESA_EvT_T0_
FN:155,187,_ZSt9iter_swapIN9__gnu_cxx17__normal_iteratorIPSt10shared_ptrIN3p2t5PointEESt6vectorIS5_SaIS5_EEEESA_EvT_T0_
FN:233,241,_ZSt3minImERKT_S2_S2_
FN:257,265,_ZSt3maxImERKT_S2_S2_
FN:316,318,_ZSt12__niter_baseIP10TestVertexET_S2_
FN:316,318,_ZSt12__niter_baseIPN15vectorfontstorm5pointEET_S3_
FN:316,318,_ZSt12__niter_baseIPPN3p2t4EdgeEET_S4_
FN:316,318,_ZSt12__niter_baseIPPN3p2t4NodeEET_S4_
FN:316,318,_ZSt12__niter_baseIPPN3p2t8TriangleEET_S4_
FN:316,318,_ZSt12__niter_baseIPSt10shared_ptrIN3p2t5PointEEET_S5_
FN:316,318,_ZSt12__niter_baseIPjET_S1_
FN:331,332,_ZSt12__niter_wrapIN9__gnu_cxx17__normal_iteratorIP10TestVertexSt6vectorIS2_SaIS2_EEEES3_ET_S8_T0_
FN:331,332,_ZSt12__niter_wrapIN9__gnu_cxx17__normal_iteratorIPN15vectorfontstorm5pointESt6vectorIS3_SaIS3_EEEES4_ET_S9_T0_
FN:331,332,_ZSt12__niter_wrapIN9__gnu_cxx17__normal_iteratorIPSt10shared_ptrIN3p2t5PointEESt6vectorIS5_SaIS5_EEEES6_ET_SB_T0_
FN:331,332,_ZSt12__niter_wrapIN9__gnu_cxx17__normal_iteratorIPjSt6vectorIjSaIjEEEES2_ET_S7_T0_
FN:338,339,_ZSt12__niter_wrapIP10TestVertexET_RKS2_S2_
FN:338,339,_ZSt12__niter_wrapIPN15vectorfontstorm5pointEET_RKS3_S3_
FN:338,339,_ZSt12__niter_wrapIPjET_RKS1_S1_
FN:383,393,_ZNSt11__copy_moveILb0ELb0ESt26random_access_iterator_tagE8__copy_mIPKN15vectorfontstorm5pointEPS4_EET0_T_S9_S8_
FN:383,393,_ZNSt11__copy_moveILb0ELb0ESt26random_access_iterator_tagE8__copy_mIPN15vectorfontstorm5pointES5_EET0_T_S7_S6_
FN:397,398,_ZNSt11__copy_moveILb0ELb0ESt26random_access_iterator_tagE12__assign_oneI10TestVertexKS3_EEvPT_PT0_
FN:397,398,_ZNSt11__copy_moveILb0ELb0ESt26random_access_iterator_tagE12__assign_oneI10TestVertexS3_EEvPT_PT0_
FN:397,398,_ZNSt11__copy_moveILb0ELb0ESt26random_access_iterator_tagE12__assign_oneIjKjEEvPT_PT0_
FN:397,398,_ZNSt11__copy_moveILb0ELb0ESt26random_access_iterator_tagE12__assign_oneIjjEEvPT_PT0_
FN:422,423,_ZNSt11__copy_moveILb1ELb0ESt26random_access_iterator_tagE12__assign_oneI10TestVertexS3_EEvPT_PT0_
FN:422,423,_ZNSt11__copy_moveILb1ELb0ESt26random_access_iterator_tagE12__assign_oneIjjEEvPT_PT0_
FN:433,442,_ZNSt11__copy_moveILb0ELb1ESt26random_access_iterator_tagE8__copy_mI10TestVertexS3_EEPT0_PT_S7_S5_
FN:433,442,_ZNSt11__copy_moveILb0ELb1ESt26random_access_iterator_tagE8__copy_mIK10TestVertexS3_EEPT0_PT_S8_S6_
FN:433,442,_ZNSt11__copy_moveILb0ELb1ESt26random_access_iterator_tagE8__copy_mIKjjEEPT0_PT_S7_S5_
FN:433,442,_ZNSt11__copy_moveILb0ELb1ESt26random_access_iterator_tagE8__copy_mIjjEEPT0_PT_S6_S4_
FN:433,442,_ZNSt11__copy_moveILb1ELb1ESt26random_access_iterator_tagE8__copy_mIjjEEPT0_PT_S6_S4_
FN:497,507,_ZSt14__copy_move_a2ILb0EP10TestVertexS1_ET1_T0_S3_S2_
FN:497,507,_ZSt14__copy_move_a2ILb0EPK10TestVertexPS0_ET1_T0_S5_S4_
FN:497,507,_ZSt14__copy_move_a2ILb0EPKN15vectorfontstorm5pointEPS1_ET1_T0_S6_S5_
FN:497,507,_ZSt14__copy_move_a2ILb0EPKjPjET1_T0_S4_S3_
FN:497,507,_ZSt14__copy_move_a2ILb0EPN15vectorfontstorm5pointES2_ET1_T0_S4_S3_
FN:497,507,_ZSt14__copy_move_a2ILb0EPjS0_ET1_T0_S2_S1_
FN:497,507,_ZSt14__copy_move_a2ILb1EPjS0_ET1_T0_S2_S1_
FN:532,533,_ZSt14__copy_move_a1ILb0EP10TestVertexS1_ET1_T0_S3_S2_
FN:532,533,_ZSt14__copy_move_a1ILb0EPK10TestVertexPS0_ET1_T0_S5_S4_
FN:532,533,_ZSt14__copy_move_a1ILb0EPKN15vectorfontstorm5pointEPS1_ET1_T0_S6_S5_
FN:532,533,_ZSt14__copy_move_a1ILb0EPKjPjET1_T0_S4_S3_
FN:532,533,_ZSt14__copy_move_a1ILb0EPN15vectorfontstorm5pointES2_ET1_T0_S4_S3_
FN:532,533,_ZSt14__copy_move_a1ILb0EPjS0_ET1_T0_S2_S1_
FN:532,533,_ZSt14__copy_move_a1ILb1EPjS0_ET1_T0_S2_S1_
FN:538,544,_ZSt13__copy_move_aILb0EN9__gnu_cxx17__normal_iteratorIPK10TestVertexSt6vectorIS2_SaIS2_EEEENS1_IPS2_S7_EEET1_T0_SC_SB_
FN:538,544,_ZSt13__copy_move_aILb0EN9__gnu_cxx17__normal_iteratorIPKN15vectorfontstorm5pointESt6vectorIS3_SaIS3_EEEENS1_IPS3_S8_EEET1_T0_SD_SC_
FN:538,544,_ZSt13__copy_move_aILb0EN9__gnu_cxx17__normal_iteratorIPKjSt6vectorIjSaIjEEEENS1_IPjS6_EEET1_T0_SB_SA_
FN:538,544,_ZSt13__copy_move_aILb0EN9__gnu_cxx17__normal_iteratorIPKjSt6vectorIjSaIjEEEEPjET1_T0_SA_S9_
FN:538,544,_ZSt13__copy_move_aILb0EP10TestVertexS1_ET1_T0_S3_S2_
FN:538,544,_ZSt13__copy_move_aILb0EPN15vectorfontstorm5pointES2_ET1_T0_S4_S3_
FN:538,544,_ZSt13__copy_move_aILb0EPjS0_ET1_T0_S2_S1_
FN:538,544,_ZSt13__copy_move_aILb1EPjS0_ET1_T0_S2_S1_
FN:624,634,_ZSt4copyIN9__gnu_cxx17__normal_iteratorIPK10TestVertexSt6vectorIS2_SaIS2_EEEENS1_IPS2_S7_EEET0_T_SC_SB_
FN:624,634,_ZSt4copyIN9__gnu_cxx17__normal_iteratorIPKN15vectorfontstorm5pointESt6vectorIS3_SaIS3_EEEENS1_IPS3_S8_EEET0_T_SD_SC_
FN:624,634,_ZSt4copyIN9__gnu_cxx17__normal_iteratorIPKjSt6vectorIjSaIjEEEENS1_IPjS6_EEET0_T_SB_SA_
FN:624,634,_ZSt4copyIN9__gnu_cxx17__normal_iteratorIPKjSt6vectorIjSaIjEEEEPjET0_T_SA_S9_
FN:624,634,_ZSt4copyIP10TestVertexS1_ET0_T_S3_S2_
FN:624,634,_ZSt4copyIPN15vectorfontstorm5pointES2_ET0_T_S4_S3_
FN:624,634,_ZSt4copyIPjS0_ET0_T_S2_S1_
FN:624,634,_ZSt4copyISt13move_iteratorIPjES1_ET0_T_S4_S3_
FN:727,734,_ZNSt20__copy_move_backwardILb1ELb0ESt26random_access_iterator_tagE13__copy_move_bIPN15vectorfontstorm5pointES5_EET0_T_S7_S6_
FN:727,734,_ZNSt20__copy_move_backwardILb1ELb0ESt26random_access_iterator_tagE13__copy_move_bIPSt10shared_ptrIN3p2t5PointEES7_EET0_T_S9_S8_
FN:744,753,_ZNSt20__copy_move_backwardILb1ELb1ESt26random_access_iterator_tagE13__copy_move_bI10TestVertexS3_EEPT0_PT_S7_S5_
FN:744,753,_ZNSt20__copy_move_backwardILb1ELb1ESt26random_access_iterator_tagE13__copy_move_bIjjEEPT0_PT_S6_S4_
FN:759,772,_ZSt23__copy_move_backward_a2ILb1EP10TestVertexS1_ET1_T0_S3_S2_
FN:759,772,_ZSt23__copy_move_backward_a2ILb1EPN15vectorfontstorm5pointES2_ET1_T0_S4_S3_
FN:759,772,_ZSt23__copy_move_backward_a2ILb1EPSt10shared_ptrIN3p2t5PointEES4_ET1_T0_S6_S5_
FN:759,772,_ZSt23__copy_move_backward_a2ILb1EPjS0_ET1_T0_S2_S1_
FN:777,778,_ZSt23__copy_move_backward_a1ILb1EP10TestVertexS1_ET1_T0_S3_S2_
FN:777,778,_ZSt23__copy_move_backward_a1ILb1EPN15vectorfontstorm5pointES2_ET1_T0_S4_S3_
FN:777,778,_ZSt23__copy_move_backward_a1ILb1EPSt10shared_ptrIN3p2t5PointEES4_ET1_T0_S6_S5_
FN:777,778,_ZSt23__copy_move_backward_a1ILb1EPjS0_ET1_T0_S2_S1_
FN:805,811,_ZSt22__copy_move_backward_aILb1EN9__gnu_cxx17__normal_iteratorIPSt10shared_ptrIN3p2t5PointEESt6vectorIS5_SaIS5_EEEESA_ET1_T0_SC_SB_
FN:805,811,_ZSt22__copy_move_backward_aILb1EP10TestVertexS1_ET1_T0_S3_S2_
FN:805,811,_ZSt22__copy_move_backward_aILb1EPN15vectorfontstorm5pointES2_ET1_T0_S4_S3_
FN:805,811,_ZSt22__copy_move_backward_aILb1EPjS0_ET1_T0_S2_S1_
FN:892,904,_ZSt13move_backwardIN9__gnu_cxx17__normal_iteratorIPSt10shared_ptrIN3p2t5PointEESt6vectorIS5_SaIS5_EEEESA_ET0_T_SC_SB_
FN:892,904,_ZSt13move_backwardIP10TestVertexS1_ET0_T_S3_S2_
FN:892,904,_ZSt13move_backwardIPN15vectorfontstorm5pointES2_ET0_T_S4_S3_
FN:892,904,_ZSt13move_backwardIPjS0_ET0_T_S2_S1_
FN:939,952,_ZSt9__fill_a1IhEN9__gnu_cxx11__enable_ifIXsrSt9__is_byteIT_E7__valueEvE6__typeEPS3_S7_RKS3_
FN:976,977,_ZSt8__fill_aIPhhEvT_S1_RKT0_
FNDA:17,_ZSt17__size_to_integerm
FNDA:17,_ZSt10__fill_n_aIPhmhET_S1_T0_RKT1_St26random_access_iterator_tag
FNDA:17,_ZSt6fill_nIPhmhET_S1_T0_RKT1_
FNDA:1393,_ZSt4__lgIlET_S0_
FNDA:291,_ZSt9iter_swapIN9__gnu_cxx17__normal_iteratorIPN15vectorfontstorm5pointESt6vectorIS3_SaIS3_EEEES8_EvT_T0_
FNDA:138,_ZSt9iter_swapIN9__gnu_cxx17__normal_iteratorIPN15vectorfontstorm7segmentI10TestVertexEESt6vectorIS5_SaIS5_EEEESA_EvT_T0_
FNDA:176,_ZSt9iter_swapIN9__gnu_cxx17__normal_iteratorIPSt10shared_ptrIN3p2t5PointEESt6vectorIS5_SaIS5_EEEESA_EvT_T0_
FNDA:20673,_ZSt3minImERKT_S2_S2_
FNDA:10266,_ZSt3maxImERKT_S2_S2_
FNDA:4611,_ZSt12__niter_baseIP10TestVertexET_S2_
FNDA:15492,_ZSt12__niter_baseIPN15vectorfontstorm5pointEET_S3_
FNDA:7932,_ZSt12__niter_baseIPPN3p2t4EdgeEET_S4_
FNDA:2028,_ZSt12__niter_baseIPPN3p2t4NodeEET_S4_
FNDA:3360,_ZSt12__niter_baseIPPN3p2t8TriangleEET_S4_
FNDA:2700,_ZSt12__niter_baseIPSt10shared_ptrIN3p2t5PointEEET_S5_
FNDA:4854,_ZSt12__niter_baseIPjET_S1_
FNDA:36,_ZSt12__niter_wrapIN9__gnu_cxx17__normal_iteratorIP10TestVertexSt6vectorIS2_SaIS2_EEEES3_ET_S8_T0_
FNDA:260,_ZSt12__niter_wrapIN9__gnu_cxx17__normal_iteratorIPN15vectorfontstorm5pointESt6vectorIS3_SaIS3_EEEES4_ET_S9_T0_
FNDA:294,_ZSt12__niter_wrapIN9__gnu_cxx17__normal_iteratorIPSt10shared_ptrIN3p2t5PointEESt6vectorIS5_SaIS5_EEEES6_ET_SB_T0_
FNDA:36,_ZSt12__niter_wrapIN9__gnu_cxx17__normal_iteratorIPjSt6vectorIjSaIjEEEES2_ET_S7_T0_
FNDA:0,_ZSt12__niter_wrapIP10TestVertexET_RKS2_S2_
FNDA:0,_ZSt12__niter_wrapIPN15vectorfontstorm5pointEET_RKS3_S3_
FNDA:179,_ZSt12__niter_wrapIPjET_RKS1_S1_
FNDA:260,_ZNSt11__copy_moveILb0ELb0ESt26random_access_iterator_tagE8__copy_mIPKN15vectorfontstorm5pointEPS4_EET0_T_S9_S8_
FNDA:0,_ZNSt11__copy_moveILb0ELb0ESt26random_access_iterator_tagE8__copy_mIPN15vectorfontstorm5pointES5_EET0_T_S7_S6_
FNDA:0,_ZNSt11__copy_moveILb0ELb0ESt26random_access_iterator_tagE12__assign_oneI10TestVertexKS3_EEvPT_PT0_
FNDA:0,_ZNSt11__copy_moveILb0ELb0ESt26random_access_iterator_tagE12__assign_oneI10TestVertexS3_EEvPT_PT0_
FNDA:1,_ZNSt11__copy_moveILb0ELb0ESt26random_access_iterator_tagE12__assign_oneIjKjEEvPT_PT0_
FNDA:0,_ZNSt11__copy_moveILb0ELb0ESt26random_access_iterator_tagE12__assign_oneIjjEEvPT_PT0_
FNDA:0,_ZNSt11__copy_moveILb1ELb0ESt26random_access_iterator_tagE12__assign_oneI10TestVertexS3_EEvPT_PT0_
FNDA:0,_ZNSt11__copy_moveILb1ELb0ESt26random_access_iterator_tagE12__assign_oneIjjEEvPT_PT0_
FNDA:0,_ZNSt11__copy_moveILb0ELb1ESt26random_access_iterator_tagE8__copy_mI10TestVertexS3_EEPT0_PT_S7_S5_
FNDA:36,_ZNSt11__copy_moveILb0ELb1ESt26random_access_iterator_tagE8__copy_mIK10TestVertexS3_EEPT0_PT_S8_S6_
FNDA:180,_ZNSt11__copy_moveILb0ELb1ESt26random_access_iterator_tagE8__copy_mIKjjEEPT0_PT_S7_S5_
FNDA:0,_ZNSt11__copy_moveILb0ELb1ESt26random_access_iterator_tagE8__copy_mIjjEEPT0_PT_S6_S4_
FNDA:35,_ZNSt11__copy_moveILb1ELb1ESt26random_access_iterator_tagE8__copy_mIjjEEPT0_PT_S6_S4_
FNDA:0,_ZSt14__copy_move_a2ILb0EP10TestVertexS1_ET1_T0_S3_S2_
FNDA:36,_ZSt14__copy_move_a2ILb0EPK10TestVertexPS0_ET1_T0_S5_S4_
FNDA:260,_ZSt14__copy_move_a2ILb0EPKN15vectorfontstorm5pointEPS1_ET1_T0_S6_S5_
FNDA:180,_ZSt14__copy_move_a2ILb0EPKjPjET1_T0_S4_S3_
FNDA:0,_ZSt14__copy_move_a2ILb0EPN15vectorfontstorm5pointES2_ET1_T0_S4_S3_
FNDA:0,_ZSt14__copy_move_a2ILb0EPjS0_ET1_T0_S2_S1_
FNDA:35,_ZSt14__copy_move_a2ILb1EPjS0_ET1_T0_S2_S1_
FNDA:0,_ZSt14__copy_move_a1ILb0EP10TestVertexS1_ET1_T0_S3_S2_
FNDA:36,_ZSt14__copy_move_a1ILb0EPK10TestVertexPS0_ET1_T0_S5_S4_
FNDA:260,_ZSt14__copy_move_a1ILb0EPKN15vectorfontstorm5pointEPS1_ET1_T0_S6_S5_
FNDA:180,_ZSt14__copy_move_a1ILb0EPKjPjET1_T0_S4_S3_
FNDA:0,_ZSt14__copy_move_a1ILb0EPN15vectorfontstorm5pointES2_ET1_T0_S4_S3_
FNDA:0,_ZSt14__copy_move_a1ILb0EPjS0_ET1_T0_S2_S1_
FNDA:35,_ZSt14__copy_move_a1ILb1EPjS0_ET1_T0_S2_S1_
FNDA:36,_ZSt13__copy_move_aILb0EN9__gnu_cxx17__normal_iteratorIPK10TestVertexSt6vectorIS2_SaIS2_EEEENS1_IPS2_S7_EEET1_T0_SC_SB_
FNDA:260,_ZSt13__copy_move_aILb0EN9__gnu_cxx17__normal_iteratorIPKN15vectorfontstorm5pointESt6vectorIS3_SaIS3_EEEENS1_IPS3_S8_EEET1_T0_SD_SC_
FNDA:36,_ZSt13__copy_move_aILb0EN9__gnu_cxx17__normal_iteratorIPKjSt6vectorIjSaIjEEEENS1_IPjS6_EEET1_T0_SB_SA_
FNDA:144,_ZSt13__copy_move_aILb0EN9__gnu_cxx17__normal_iteratorIPKjSt6vectorIjSaIjEEEEPjET1_T0_SA_S9_
FNDA:0,_ZSt13__copy_move_aILb0EP10TestVertexS1_ET1_T0_S3_S2_
FNDA:0,_ZSt13__copy_move_aILb0EPN15vectorfontstorm5pointES2_ET1_T0_S4_S3_
FNDA:0,_ZSt13__copy_move_aILb0EPjS0_ET1_T0_S2_S1_
FNDA:35,_ZSt13__copy_move_aILb1EPjS0_ET1_T0_S2_S1_
FNDA:36,_ZSt4copyIN9__gnu_cxx17__normal_iteratorIPK10TestVertexSt6vectorIS2_SaIS2_EEEENS1_IPS2_S7_EEET0_T_SC_SB_
FNDA:260,_ZSt4copyIN9__gnu_cxx17__normal_iteratorIPKN15vectorfontstorm5pointESt6vectorIS3_SaIS3_EEEENS1_IPS3_S8_EEET0_T_SD_SC_
FNDA:36,_ZSt4copyIN9__gnu_cxx17__normal_iteratorIPKjSt6vectorIjSaIjEEEENS1_IPjS6_EEET0_T_SB_SA_
FNDA:144,_ZSt4copyIN9__gnu_cxx17__normal_iteratorIPKjSt6vectorIjSaIjEEEEPjET0_T_SA_S9_
FNDA:0,_ZSt4copyIP10TestVertexS1_ET0_T_S3_S2_
FNDA:0,_ZSt4copyIPN15vectorfontstorm5pointES2_ET0_T_S4_S3_
FNDA:0,_ZSt4copyIPjS0_ET0_T_S2_S1_
FNDA:35,_ZSt4copyISt13move_iteratorIPjES1_ET0_T_S4_S3_
FNDA:0,_ZNSt20__copy_move_backwardILb1ELb0ESt26random_access_iterator_tagE13__copy_move_bIPN15vectorfontstorm5pointES5_EET0_T_S7_S6_
FNDA:294,_ZNSt20__copy_move_backwardILb1ELb0ESt26random_access_iterator_tagE13__copy_move_bIPSt10shared_ptrIN3p2t5PointEES7_EET0_T_S9_S8_
FNDA:0,_ZNSt20__copy_move_backwardILb1ELb1ESt26random_access_iterator_tagE13__copy_move_bI10TestVertexS3_EEPT0_PT_S7_S5_
FNDA:0,_ZNSt20__copy_move_backwardILb1ELb1ESt26random_access_iterator_tagE13__copy_move_bIjjEEPT0_PT_S6_S4_
FNDA:0,_ZSt23__copy_move_backward_a2ILb1EP10TestVertexS1_ET1_T0_S3_S2_
FNDA:0,_ZSt23__copy_move_backward_a2ILb1EPN15vectorfontstorm5pointES2_ET1_T0_S4_S3_
FNDA:294,_ZSt23__copy_move_backward_a2ILb1EPSt10shared_ptrIN3p2t5PointEES4_ET1_T0_S6_S5_
FNDA:0,_ZSt23__copy_move_backward_a2ILb1EPjS0_ET1_T0_S2_S1_
FNDA:0,_ZSt23__copy_move_backward_a1ILb1EP10TestVertexS1_ET1_T0_S3_S2_
FNDA:0,_ZSt23__copy_move_backward_a1ILb1EPN15vectorfontstorm5pointES2_ET1_T0_S4_S3_
FNDA:294,_ZSt23__copy_move_backward_a1ILb1EPSt10shared_ptrIN3p2t5PointEES4_ET1_T0_S6_S5_
FNDA:0,_ZSt23__copy_move_backward_a1ILb1EPjS0_ET1_T0_S2_S1_
FNDA:294,_ZSt22__copy_move_backward_aILb1EN9__gnu_cxx17__normal_iteratorIPSt10shared_ptrIN3p2t5PointEESt6vectorIS5_SaIS5_EEEESA_ET1_T0_SC_SB_
FNDA:0,_ZSt22__copy_move_backward_aILb1EP10TestVertexS1_ET1_T0_S3_S2_
FNDA:0,_ZSt22__copy_move_backward_aILb1EPN15vectorfontstorm5pointES2_ET1_T0_S4_S3_
FNDA:0,_ZSt22__copy_move_backward_aILb1EPjS0_ET1_T0_S2_S1_
FNDA:294,_ZSt13move_backwardIN9__gnu_cxx17__normal_iteratorIPSt10shared_ptrIN3p2t5PointEESt6vectorIS5_SaIS5_EEEESA_ET0_T_SC_SB_
FNDA:0,_ZSt13move_backwardIP10TestVertexS1_ET0_T_S3_S2_
FNDA:0,_ZSt13move_backwardIPN15vectorfontstorm5pointES2_ET0_T_S4_S3_
FNDA:0,_ZSt13move_backwardIPjS0_ET0_T_S2_S1_
FNDA:17,_ZSt9__fill_a1IhEN9__gnu_cxx11__enable_ifIXsrSt9__is_byteIT_E7__valueEvE6__typeEPS3_S7_RKS3_
FNDA:17,_ZSt8__fill_aIPhhEvT_S1_RKT0_
FNF:88
FNH:51
DA:155,605
DA:185,605
DA:187,605
DA:233,20673
DA:238,20673
DA:239,0
DA:240,20673
DA:257,10266
DA:262,10266
DA:263,4855
DA:264,5411
DA:316,40977
DA:318,40977
DA:331,626
DA:332,626
DA:338,179
DA:339,179
DA:383,260
DA:386,892
DA:388,632
DA:389,632
DA:390,632
DA:392,260
DA:397,1
DA:398,1
DA:422,0
DA:423,0
DA:433,251
DA:435,251
DA:436,251
DA:437,35
DA:438,216
DA:440,1
DA:441,251
DA:497,511
DA:506,511
DA:532,511
DA:533,511
DA:538,511
DA:540,511
DA:543,511
DA:624,511
DA:633,511
DA:727,294
DA:730,294
DA:731,1918
DA:732,1624
DA:733,294
DA:744,0
DA:746,0
DA:747,0
DA:748,0
DA:749,0
DA:751,0
DA:752,0
DA:759,294
DA:769,294
DA:771,294
DA:777,294
DA:778,294
DA:805,294
DA:807,294
DA:810,294
DA:892,294
DA:901,294
DA:903,294
DA:939,17
DA:941,17
DA:950,17
DA:951,17
DA:952,17
DA:976,17
DA:977,17
DA:1018,17
DA:1117,17
DA:1123,17
DA:1124,0
DA:1128,17
DA:1129,17
DA:1152,17
DA:1157,17
DA:1158,34
DA:1515,1393
DA:1518,1393
LF:84
LH:73
end_of_record
TN:
SF:/usr/include/c++/13/bits/stl_construct.h
FN:109,120,_ZSt10_ConstructI10TestVertexJRKS0_EEvPT_DpOT0_
FN:109,120,_ZSt10_ConstructI10TestVertexJRS0_EEvPT_DpOT0_
FN:109,120,_ZSt10_ConstructI10TestVertexJS0_EEvPT_DpOT0_
FN:109,120,_ZSt10_ConstructIN15vectorfontstorm5pointEJRKS1_EEvPT_DpOT0_
FN:109,120,_ZSt10_ConstructIN15vectorfontstorm5pointEJRS1_EEvPT_DpOT0_
FN:109,120,_ZSt10_ConstructIN15vectorfontstorm7contourI10TestVertexEEJRKS3_EEvPT_DpOT0_
FN:109,120,_ZSt10_ConstructIN15vectorfontstorm7segmentI10TestVertexEEJRKS3_EEvPT_DpOT0_
FN:109,120,_ZSt10_ConstructISt10shared_ptrIN3p2t5PointEEJRKS3_EEvPT_DpOT0_
FN:109,120,_ZSt10_ConstructIhJEEvPT_DpOT0_
FN:146,153,_ZSt8_DestroyIN15vectorfontstorm5pointEEvPT_
FN:146,153,_ZSt8_DestroyIN15vectorfontstorm7contourI10TestVertexEEEvPT_
FN:146,153,_ZSt8_DestroyIN15vectorfontstorm7segmentI10TestVertexEEEvPT_
FN:146,153,_ZSt8_DestroyISt10shared_ptrIN3p2t5PointEEEvPT_
FN:160,164,_ZNSt12_Destroy_auxILb0EE9__destroyIN9__gnu_cxx17__normal_iteratorIPN15vectorfontstorm5pointESt6vectorIS5_SaIS5_EEEEEEvT_SB_
FN:160,164,_ZNSt12_Destroy_auxILb0EE9__destroyIPN15vectorfontstorm5pointEEEvT_S5_
FN:160,164,_ZNSt12_Destroy_auxILb0EE9__destroyIPN15vectorfontstorm7contourI10TestVertexEEEEvT_S7_
FN:160,164,_ZNSt12_Destroy_auxILb0EE9__destroyIPN15vectorfontstorm7segmentI10TestVertexEEEEvT_S7_
FN:160,164,_ZNSt12_Destroy_auxILb0EE9__destroyIPSt10shared_ptrIN3p2t5PointEEEEvT_S7_
FN:172,172,_ZNSt12_Destroy_auxILb1EE9__destroyIN9__gnu_cxx17__normal_iteratorIP10TestVertexSt6vectorIS4_SaIS4_EEEEEEvT_SA_
FN:172,172,_ZNSt12_Destroy_auxILb1EE9__destroyIN9__gnu_cxx17__normal_iteratorIPjSt6vectorIjSaIjEEEEEEvT_S9_
FN:172,172,_ZNSt12_Destroy_auxILb1EE9__destroyIP10TestVertexEEvT_S4_
FN:172,172,_ZNSt12_Destroy_auxILb1EE9__destroyIPPN3p2t4EdgeEEEvT_S6_
FN:172,172,_ZNSt12_Destroy_auxILb1EE9__destroyIPPN3p2t4NodeEEEvT_S6_
FN:172,172,_ZNSt12_Destroy_auxILb1EE9__destroyIPPN3p2t8TriangleEEEvT_S6_
FN:172,172,_ZNSt12_Destroy_auxILb1EE9__destroyIPhEEvT_S3_
FN:172,172,_ZNSt12_Destroy_auxILb1EE9__destroyIPjEEvT_S3_
FN:182,197,_ZSt8_DestroyIN9__gnu_cxx17__normal_iteratorIP10TestVertexSt6vectorIS2_SaIS2_EEEEEvT_S8_
FN:182,197,_ZSt8_DestroyIN9__gnu_cxx17__normal_iteratorIPN15vectorfontstorm5pointESt6vectorIS3_SaIS3_EEEEEvT_S9_
FN:182,197,_ZSt8_DestroyIN9__gnu_cxx17__normal_iteratorIPjSt6vectorIjSaIjEEEEEvT_S7_
FN:182,197,_ZSt8_DestroyIP10TestVertexEvT_S2_
FN:182,197,_ZSt8_DestroyIPN15vectorfontstorm5pointEEvT_S3_
FN:182,197,_ZSt8_DestroyIPN15vectorfontstorm7contourI10TestVertexEEEvT_S5_
FN:182,197,_ZSt8_DestroyIPN15vectorfontstorm7segmentI10TestVertexEEEvT_S5_
FN:182,197,_ZSt8_DestroyIPPN3p2t4EdgeEEvT_S4_
FN:182,197,_ZSt8_DestroyIPPN3p2t4NodeEEvT_S4_
FN:182,197,_ZSt8_DestroyIPPN3p2t8TriangleEEvT_S4_
FN:182,197,_ZSt8_DestroyIPSt10shared_ptrIN3p2t5PointEEEvT_S5_
FN:182,197,_ZSt8_DestroyIPhEvT_S1_
FN:182,197,_ZSt8_DestroyIPjEvT_S1_
FNDA:1629,_ZSt10_ConstructI10TestVertexJRKS0_EEvPT_DpOT0_
FNDA:0,_ZSt10_ConstructI10TestVertexJRS0_EEvPT_DpOT0_
FNDA:0,_ZSt10_ConstructI10TestVertexJS0_EEvPT_DpOT0_
FNDA:2535,_ZSt10_ConstructIN15vectorfontstorm5pointEJRKS1_EEvPT_DpOT0_
FNDA:0,_ZSt10_ConstructIN15vectorfontstorm5pointEJRS1_EEvPT_DpOT0_
FNDA:24,_ZSt10_ConstructIN15vectorfontstorm7contourI10TestVertexEEJRKS3_EEvPT_DpOT0_
FNDA:930,_ZSt10_ConstructIN15vectorfontstorm7segmentI10TestVertexEEJRKS3_EEvPT_DpOT0_
FNDA:696,_ZSt10_ConstructISt10shared_ptrIN3p2t5PointEEJRKS3_EEvPT_DpOT0_
FNDA:17,_ZSt10_ConstructIhJEEvPT_DpOT0_
FNDA:5117,_ZSt8_DestroyIN15vectorfontstorm5pointEEvPT_
FNDA:69,_ZSt8_DestroyIN15vectorfontstorm7contourI10TestVertexEEEvPT_
FNDA:2137,_ZSt8_DestroyIN15vectorfontstorm7segmentI10TestVertexEEEvPT_
FNDA:1470,_ZSt8_DestroyISt10shared_ptrIN3p2t5PointEEEvPT_
FNDA:260,_ZNSt12_Destroy_auxILb0EE9__destroyIN9__gnu_cxx17__normal_iteratorIPN15vectorfontstorm5pointESt6vectorIS5_SaIS5_EEEEEEvT_SB_
FNDA:2291,_ZNSt12_Destroy_auxILb0EE9__destroyIPN15vectorfontstorm5pointEEEvT_S5_
FNDA:104,_ZNSt12_Destroy_auxILb0EE9__destroyIPN15vectorfontstorm7contourI10TestVertexEEEEvT_S7_
FNDA:1628,_ZNSt12_Destroy_auxILb0EE9__destroyIPN15vectorfontstorm7segmentI10TestVertexEEEEvT_S7_
FNDA:124,_ZNSt12_Destroy_auxILb0EE9__destroyIPSt10shared_ptrIN3p2t5PointEEEEvT_S7_
FNDA:1,_ZNSt12_Destroy_auxILb1EE9__destroyIN9__gnu_cxx17__normal_iteratorIP10TestVertexSt6vectorIS4_SaIS4_EEEEEEvT_SA_
FNDA:1,_ZNSt12_Destroy_auxILb1EE9__destroyIN9__gnu_cxx17__normal_iteratorIPjSt6vectorIjSaIjEEEEEEvT_S9_
FNDA:279,_ZNSt12_Destroy_auxILb1EE9__destroyIP10TestVertexEEvT_S4_
FNDA:1172,_ZNSt12_Destroy_auxILb1EE9__destroyIPPN3p2t4EdgeEEEvT_S6_
FNDA:68,_ZNSt12_Destroy_auxILb1EE9__destroyIPPN3p2t4NodeEEEvT_S6_
FNDA:136,_ZNSt12_Destroy_auxILb1EE9__destroyIPPN3p2t8TriangleEEEvT_S6_
FNDA:62,_ZNSt12_Destroy_auxILb1EE9__destroyIPhEEvT_S3_
FNDA:279,_ZNSt12_Destroy_auxILb1EE9__destroyIPjEEvT_S3_
FNDA:1,_ZSt8_DestroyIN9__gnu_cxx17__normal_iteratorIP10TestVertexSt6vectorIS2_SaIS2_EEEEEvT_S8_
FNDA:260,_ZSt8_DestroyIN9__gnu_cxx17__normal_iteratorIPN15vectorfontstorm5pointESt6vectorIS3_SaIS3_EEEEEvT_S9_
FNDA:1,_ZSt8_DestroyIN9__gnu_cxx17__normal_iteratorIPjSt6vectorIjSaIjEEEEEvT_S7_
FNDA:279,_ZSt8_DestroyIP10TestVertexEvT_S2_
FNDA:2291,_ZSt8_DestroyIPN15vectorfontstorm5pointEEvT_S3_
FNDA:104,_ZSt8_DestroyIPN15vectorfontstorm7contourI10TestVertexEEEvT_S5_
FNDA:1628,_ZSt8_DestroyIPN15vectorfontstorm7segmentI10TestVertexEEEvT_S5_
FNDA:1172,_ZSt8_DestroyIPPN3p2t4EdgeEEvT_S4_
FNDA:68,_ZSt8_DestroyIPPN3p2t4NodeEEvT_S4_
FNDA:136,_ZSt8_DestroyIPPN3p2t8TriangleEEvT_S4_
FNDA:124,_ZSt8_DestroyIPSt10shared_ptrIN3p2t5PointEEEvT_S5_
FNDA:62,_ZSt8_DestroyIPhEvT_S1_
FNDA:279,_ZSt8_DestroyIPjEvT_S1_
FNF:39
FNH:36
DA:109,5831
DA:119,5831
DA:120,5831
DA:146,8793
DA:151,8793
DA:153,8793
DA:160,4407
DA:162,13200
DA:163,8793
DA:164,4407
DA:172,1998
DA:182,6405
DA:196,6405
DA:197,6405
LF:14
LH:14
end_of_record
TN:
SF:/usr/include/c++/13/bits/stl_function.h
FN:377,378,_ZNKSt8equal_toIDiEclERKDiS2_
FNDA:5,_ZNKSt8equal_toIDiEclERKDiS2_
FNF:1
FNH:1
DA:377,5
DA:378,5
LF:2
LH:2
end_of_record
TN:
SF:/usr/include/c++/13/bits/stl_heap.h
FN:135,147,_ZSt11__push_heapIN9__gnu_cxx17__normal_iteratorIPSt10shared_ptrIN3p2t5PointEESt6vectorIS5_SaIS5_EEEElS5_NS0_5__ops14_Iter_comp_valIPFbS5_S5_EEEEvT_T0_SH_T1_RT2_
FN:224,249,_ZSt13__adjust_heapIN9__gnu_cxx17__normal_iteratorIPSt10shared_ptrIN3p2t5PointEESt6vectorIS5_SaIS5_EEEElS5_NS0_5__ops15_Iter_comp_iterIPFbS5_S5_EEEEvT_T0_SH_T1_T2_
FN:254,267,_ZSt10__pop_heapIN9__gnu_cxx17__normal_iteratorIPSt10shared_ptrIN3p2t5PointEESt6vectorIS5_SaIS5_EEEENS0_5__ops15_Iter_comp_iterIPFbS5_S5_EEEEvT_SG_SG_RT0_
FN:340,362,_ZSt11__make_heapIN9__gnu_cxx17__normal_iteratorIPSt10shared_ptrIN3p2t5PointEESt6vectorIS5_SaIS5_EEEENS0_5__ops15_Iter_comp_iterIPFbS5_S5_EEEEvT_SG_RT0_
FN:419,427,_ZSt11__sort_heapIN9__gnu_cxx17__normal_iteratorIPSt10shared_ptrIN3p2t5PointEESt6vectorIS5_SaIS5_EEEENS0_5__ops15_Iter_comp_iterIPFbS5_S5_EEEEvT_SG_RT0_
FNDA:0,_ZSt11__push_heapIN9__gnu_cxx17__normal_iteratorIPSt10shared_ptrIN3p2t5PointEESt6vectorIS5_SaIS5_EEEElS5_NS0_5__ops14_Iter_comp_valIPFbS5_S5_EEEEvT_T0_SH_T1_RT2_
FNDA:0,_ZSt13__adjust_heapIN9__gnu_cxx17__normal_iteratorIPSt10shared_ptrIN3p2t5PointEESt6vectorIS5_SaIS5_EEEElS5_NS0_5__ops15_Iter_comp_iterIPFbS5_S5_EEEEvT_T0_SH_T1_T2_
FNDA:0,_ZSt10__pop_heapIN9__gnu_cxx17__normal_iteratorIPSt10shared_ptrIN3p2t5PointEESt6vectorIS5_SaIS5_EEEENS0_5__ops15_Iter_comp_iterIPFbS5_S5_EEEEvT_SG_SG_RT0_
FNDA:0,_ZSt11__make_heapIN9__gnu_cxx17__normal_iteratorIPSt10shared_ptrIN3p2t5PointEESt6vectorIS5_SaIS5_EEEENS0_5__ops15_Iter_comp_iterIPFbS5_S5_EEEEvT_SG_RT0_
FNDA:0,_ZSt11__sort_heapIN9__gnu_cxx17__normal_iteratorIPSt10shared_ptrIN3p2t5PointEESt6vectorIS5_SaIS5_EEEENS0_5__ops15_Iter_comp_iterIPFbS5_S5_EEEEvT_SG_RT0_
FNF:5
FNH:0
DA:135,0
DA:139,0
DA:140,0
DA:142,0
DA:143,0
DA:144,0
DA:146,0
DA:147,0
DA:224,0
DA:227,0
DA:228,0
DA:229,0
DA:231,0
DA:232,0
DA:234,0
DA:235,0
DA:236,0
DA:238,0
DA:240,0
DA:241,0
DA:243,0
DA:246,0
DA:247,0
DA:248,0
DA:249,0
DA:254,0
DA:262,0
DA:263,0
DA:264,0
DA:265,0
DA:266,0
DA:267,0
DA:340,0
DA:348,0
DA:349,0
DA:351,0
DA:352,0
DA:353,0
DA:355,0
DA:356,0
DA:358,0
DA:359,0
DA:360,0
DA:419,0
DA:422,0
DA:424,0
DA:425,0
DA:427,0
LF:48
LH:0
end_of_record
TN:
SF:/usr/include/c++/13/bits/stl_iterator.h
FN:1076,1077,_ZN9__gnu_cxx17__normal_iteratorIP10TestVertexSt6vectorIS1_SaIS1_EEEC2ERKS2_
FN:1076,1077,_ZN9__gnu_cxx17__normal_iteratorIPDiNSt7__cxx1112basic_stringIDiSt11char_traitsIDiESaIDiEEEEC2ERKS1_
FN:1076,1077,_ZN9__gnu_cxx17__normal_iteratorIPK10TestVertexSt6vectorIS1_SaIS1_EEEC2ERKS3_
FN:1076,1077,_ZN9__gnu_cxx17__normal_iteratorIPKN15vectorfontstorm5pointESt6vectorIS2_SaIS2_EEEC2ERKS4_
FN:1076,1077,_ZN9__gnu_cxx17__normal_iteratorIPKN15vectorfontstorm7contourI10TestVertexEESt6vectorIS4_SaIS4_EEEC2ERKS6_
FN:1076,1077,_ZN9__gnu_cxx17__normal_iteratorIPKN15vectorfontstorm7segmentI10TestVertexEESt6vectorIS4_SaIS4_EEEC2ERKS6_
FN:1076,1077,_ZN9__gnu_cxx17__normal_iteratorIPKPN3p2t8TriangleESt6vectorIS3_SaIS3_EEEC2ERKS5_
FN:1076,1077,_ZN9__gnu_cxx17__normal_iteratorIPKSt10shared_ptrIN3p2t5PointEESt6vectorIS4_SaIS4_EEEC2ERKS6_
FN:1076,1077,_ZN9__gnu_cxx17__normal_iteratorIPKhSt6vectorIhSaIhEEEC2ERKS2_
FN:1076,1077,_ZN9__gnu_cxx17__normal_iteratorIPKjSt6vectorIjSaIjEEEC2ERKS2_
FN:1076,1077,_ZN9__gnu_cxx17__normal_iteratorIPN15vectorfontstorm5pointESt6vectorIS2_SaIS2_EEEC2ERKS3_
FN:1076,1077,_ZN9__gnu_cxx17__normal_iteratorIPN15vectorfontstorm7contourI10TestVertexEESt6vectorIS4_SaIS4_EEEC2ERKS5_
FN:1076,1077,_ZN9__gnu_cxx17__normal_iteratorIPN15vectorfontstorm7segmentI10TestVertexEESt6vectorIS4_SaIS4_EEEC2ERKS5_
FN:1076,1077,_ZN9__gnu_cxx17__normal_iteratorIPPN3p2t4EdgeESt6vectorIS3_SaIS3_EEEC2ERKS4_
FN:1076,1077,_ZN9__gnu_cxx17__normal_iteratorIPPN3p2t4NodeESt6vectorIS3_SaIS3_EEEC2ERKS4_
FN:1076,1077,_ZN9__gnu_cxx17__normal_iteratorIPPN3p2t8TriangleESt6vectorIS3_SaIS3_EEEC2ERKS4_
FN:1076,1077,_ZN9__gnu_cxx17__normal_iteratorIPSt10shared_ptrIN3p2t5PointEESt6vectorIS4_SaIS4_EEEC2ERKS5_
FN:1076,1077,_ZN9__gnu_cxx17__normal_iteratorIPjSt6vectorIjSaIjEEEC2ERKS1_
FN:1083,1094,_ZN9__gnu_cxx17__normal_iteratorIPK10TestVertexSt6vectorIS1_SaIS1_EEEC2IPS1_vEERKNS0_IT_S6_EE
FN:1083,1094,_ZN9__gnu_cxx17__normal_iteratorIPKN15vectorfontstorm5pointESt6vectorIS2_SaIS2_EEEC2IPS2_vEERKNS0_IT_S7_EE
FN:1083,1094,_ZN9__gnu_cxx17__normal_iteratorIPKjSt6vectorIjSaIjEEEC2IPjvEERKNS0_IT_S5_EE
FN:1099,1100,_ZNK9__gnu_cxx17__normal_iteratorIP10TestVertexSt6vectorIS1_SaIS1_EEEdeEv
FN:1099,1100,_ZNK9__gnu_cxx17__normal_iteratorIPDiNSt7__cxx1112basic_stringIDiSt11char_traitsIDiESaIDiEEEEdeEv
FN:1099,1100,_ZNK9__gnu_cxx17__normal_iteratorIPK10TestVertexSt6vectorIS1_SaIS1_EEEdeEv
FN:1099,1100,_ZNK9__gnu_cxx17__normal_iteratorIPKN15vectorfontstorm5pointESt6vectorIS2_SaIS2_EEEdeEv
FN:1099,1100,_ZNK9__gnu_cxx17__normal_iteratorIPKN15vectorfontstorm7contourI10TestVertexEESt6vectorIS4_SaIS4_EEEdeEv
FN:1099,1100,_ZNK9__gnu_cxx17__normal_iteratorIPKN15vectorfontstorm7segmentI10TestVertexEESt6vectorIS4_SaIS4_EEEdeEv
FN:1099,1100,_ZNK9__gnu_cxx17__normal_iteratorIPKSt10shared_ptrIN3p2t5PointEESt6vectorIS4_SaIS4_EEEdeEv
FN:1099,1100,_ZNK9__gnu_cxx17__normal_iteratorIPN15vectorfontstorm5pointESt6vectorIS2_SaIS2_EEEdeEv
FN:1099,1100,_ZNK9__gnu_cxx17__normal_iteratorIPN15vectorfontstorm7contourI10TestVertexEESt6vectorIS4_SaIS4_EEEdeEv
FN:1099,1100,_ZNK9__gnu_cxx17__normal_iteratorIPN15vectorfontstorm7segmentI10TestVertexEESt6vectorIS4_SaIS4_EEEdeEv
FN:1099,1100,_ZNK9__gnu_cxx17__normal_iteratorIPPN3p2t4EdgeESt6vectorIS3_SaIS3_EEEdeEv
FN:1099,1100,_ZNK9__gnu_cxx17__normal_iteratorIPPN3p2t4NodeESt6vectorIS3_SaIS3_EEEdeEv
FN:1099,1100,_ZNK9__gnu_cxx17__normal_iteratorIPPN3p2t8TriangleESt6vectorIS3_SaIS3_EEEdeEv
FN:1099,1100,_ZNK9__gnu_cxx17__normal_iteratorIPSt10shared_ptrIN3p2t5PointEESt6vectorIS4_SaIS4_EEEdeEv
FN:1099,1100,_ZNK9__gnu_cxx17__normal_iteratorIPjSt6vectorIjSaIjEEEdeEv
FN:1104,1105,_ZNK9__gnu_cxx17__normal_iteratorIPN15vectorfontstorm7contourI10TestVertexEESt6vectorIS4_SaIS4_EEEptEv
FN:1109,1113,_ZN9__gnu_cxx17__normal_iteratorIP10TestVertexSt6vectorIS1_SaIS1_EEEppEv
FN:1109,1113,_ZN9__gnu_cxx17__normal_iteratorIPDiNSt7__cxx1112basic_stringIDiSt11char_traitsIDiESaIDiEEEEppEv
FN:1109,1113,_ZN9__gnu_cxx17__normal_iteratorIPK10TestVertexSt6vectorIS1_SaIS1_EEEppEv
FN:1109,1113,_ZN9__gnu_cxx17__normal_iteratorIPKN15vectorfontstorm5pointESt6vectorIS2_SaIS2_EEEppEv
FN:1109,1113,_ZN9__gnu_cxx17__normal_iteratorIPKN15vectorfontstorm7contourI10TestVertexEESt6vectorIS4_SaIS4_EEEppEv
FN:1109,1113,_ZN9__gnu_cxx17__normal_iteratorIPKN15vectorfontstorm7segmentI10TestVertexEESt6vectorIS4_SaIS4_EEEppEv
FN:1109,1113,_ZN9__gnu_cxx17__normal_iteratorIPKSt10shared_ptrIN3p2t5PointEESt6vectorIS4_SaIS4_EEEppEv
FN:1109,1113,_ZN9__gnu_cxx17__normal_iteratorIPN15vectorfontstorm5pointESt6vectorIS2_SaIS2_EEEppEv
FN:1109,1113,_ZN9__gnu_cxx17__normal_iteratorIPN15vectorfontstorm7contourI10TestVertexEESt6vectorIS4_SaIS4_EEEppEv
FN:1109,1113,_ZN9__gnu_cxx17__normal_iteratorIPN15vectorfontstorm7segmentI10TestVertexEESt6vectorIS4_SaIS4_EEEppEv
FN:1109,1113,_ZN9__gnu_cxx17__normal_iteratorIPPN3p2t4EdgeESt6vectorIS3_SaIS3_EEEppEv
FN:1109,1113,_ZN9__gnu_cxx17__normal_iteratorIPPN3p2t8TriangleESt6vectorIS3_SaIS3_EEEppEv
FN:1109,1113,_ZN9__gnu_cxx17__normal_iteratorIPSt10shared_ptrIN3p2t5PointEESt6vectorIS4_SaIS4_EEEppEv
FN:1109,1113,_ZN9__gnu_cxx17__normal_iteratorIPjSt6vectorIjSaIjEEEppEv
FN:1123,1127,_ZN9__gnu_cxx17__normal_iteratorIPN15vectorfontstorm5pointESt6vectorIS2_SaIS2_EEEmmEv
FN:1123,1127,_ZN9__gnu_cxx17__normal_iteratorIPN15vectorfontstorm7segmentI10TestVertexEESt6vectorIS4_SaIS4_EEEmmEv
FN:1123,1127,_ZN9__gnu_cxx17__normal_iteratorIPSt10shared_ptrIN3p2t5PointEESt6vectorIS4_SaIS4_EEEmmEv
FN:1137,1138,_ZNK9__gnu_cxx17__normal_iteratorIPN15vectorfontstorm5pointESt6vectorIS2_SaIS2_EEEixEl
FN:1142,1143,_ZN9__gnu_cxx17__normal_iteratorIPK10TestVertexSt6vectorIS1_SaIS1_EEEpLEl
FN:1142,1143,_ZN9__gnu_cxx17__normal_iteratorIPKjSt6vectorIjSaIjEEEpLEl
FN:1147,1148,_ZNK9__gnu_cxx17__normal_iteratorIP10TestVertexSt6vectorIS1_SaIS1_EEEplEl
FN:1147,1148,_ZNK9__gnu_cxx17__normal_iteratorIPN15vectorfontstorm5pointESt6vectorIS2_SaIS2_EEEplEl
FN:1147,1148,_ZNK9__gnu_cxx17__normal_iteratorIPSt10shared_ptrIN3p2t5PointEESt6vectorIS4_SaIS4_EEEplEl
FN:1147,1148,_ZNK9__gnu_cxx17__normal_iteratorIPjSt6vectorIjSaIjEEEplEl
FN:1157,1158,_ZNK9__gnu_cxx17__normal_iteratorIP10TestVertexSt6vectorIS1_SaIS1_EEEmiEl
FN:1157,1158,_ZNK9__gnu_cxx17__normal_iteratorIPKN15vectorfontstorm5pointESt6vectorIS2_SaIS2_EEEmiEl
FN:1157,1158,_ZNK9__gnu_cxx17__normal_iteratorIPN15vectorfontstorm5pointESt6vectorIS2_SaIS2_EEEmiEl
FN:1157,1158,_ZNK9__gnu_cxx17__normal_iteratorIPN15vectorfontstorm7contourI10TestVertexEESt6vectorIS4_SaIS4_EEEmiEl
FN:1157,1158,_ZNK9__gnu_cxx17__normal_iteratorIPN15vectorfontstorm7segmentI10TestVertexEESt6vectorIS4_SaIS4_EEEmiEl
FN:1157,1158,_ZNK9__gnu_cxx17__normal_iteratorIPPN3p2t4EdgeESt6vectorIS3_SaIS3_EEEmiEl
FN:1157,1158,_ZNK9__gnu_cxx17__normal_iteratorIPPN3p2t4NodeESt6vectorIS3_SaIS3_EEEmiEl
FN:1157,1158,_ZNK9__gnu_cxx17__normal_iteratorIPPN3p2t8TriangleESt6vectorIS3_SaIS3_EEEmiEl
FN:1157,1158,_ZNK9__gnu_cxx17__normal_iteratorIPSt10shared_ptrIN3p2t5PointEESt6vectorIS4_SaIS4_EEEmiEl
FN:1157,1158,_ZNK9__gnu_cxx17__normal_iteratorIPjSt6vectorIjSaIjEEEmiEl
FN:1162,1163,_ZNK9__gnu_cxx17__normal_iteratorIP10TestVertexSt6vectorIS1_SaIS1_EEE4baseEv
FN:1162,1163,_ZNK9__gnu_cxx17__normal_iteratorIPDiNSt7__cxx1112basic_stringIDiSt11char_traitsIDiESaIDiEEEE4baseEv
FN:1162,1163,_ZNK9__gnu_cxx17__normal_iteratorIPK10TestVertexSt6vectorIS1_SaIS1_EEE4baseEv
FN:1162,1163,_ZNK9__gnu_cxx17__normal_iteratorIPKN15vectorfontstorm5pointESt6vectorIS2_SaIS2_EEE4baseEv
FN:1162,1163,_ZNK9__gnu_cxx17__normal_iteratorIPKN15vectorfontstorm7contourI10TestVertexEESt6vectorIS4_SaIS4_EEE4baseEv
FN:1162,1163,_ZNK9__gnu_cxx17__normal_iteratorIPKN15vectorfontstorm7segmentI10TestVertexEESt6vectorIS4_SaIS4_EEE4baseEv
FN:1162,1163,_ZNK9__gnu_cxx17__normal_iteratorIPKPN3p2t8TriangleESt6vectorIS3_SaIS3_EEE4baseEv
FN:1162,1163,_ZNK9__gnu_cxx17__normal_iteratorIPKSt10shared_ptrIN3p2t5PointEESt6vectorIS4_SaIS4_EEE4baseEv
FN:1162,1163,_ZNK9__gnu_cxx17__normal_iteratorIPKhSt6vectorIhSaIhEEE4baseEv
FN:1162,1163,_ZNK9__gnu_cxx17__normal_iteratorIPKjSt6vectorIjSaIjEEE4baseEv
FN:1162,1163,_ZNK9__gnu_cxx17__normal_iteratorIPN15vectorfontstorm5pointESt6vectorIS2_SaIS2_EEE4baseEv
FN:1162,1163,_ZNK9__gnu_cxx17__normal_iteratorIPN15vectorfontstorm7contourI10TestVertexEESt6vectorIS4_SaIS4_EEE4baseEv
FN:1162,1163,_ZNK9__gnu_cxx17__normal_iteratorIPN15vectorfontstorm7segmentI10TestVertexEESt6vectorIS4_SaIS4_EEE4baseEv
FN:1162,1163,_ZNK9__gnu_cxx17__normal_iteratorIPPN3p2t4EdgeESt6vectorIS3_SaIS3_EEE4baseEv
FN:1162,1163,_ZNK9__gnu_cxx17__normal_iteratorIPPN3p2t4NodeESt6vectorIS3_SaIS3_EEE4baseEv
FN:1162,1163,_ZNK9__gnu_cxx17__normal_iteratorIPPN3p2t8TriangleESt6vectorIS3_SaIS3_EEE4baseEv
FN:1162,1163,_ZNK9__gnu_cxx17__normal_iteratorIPSt10shared_ptrIN3p2t5PointEESt6vectorIS4_SaIS4_EEE4baseEv
FN:1162,1163,_ZNK9__gnu_cxx17__normal_iteratorIPjSt6vectorIjSaIjEEE4baseEv
FN:1225,1228,_ZN9__gnu_cxxeqIPK10TestVertexSt6vectorIS1_SaIS1_EEEEbRKNS_17__normal_iteratorIT_T0_EESC_
FN:1225,1228,_ZN9__gnu_cxxeqIPKN15vectorfontstorm5pointESt6vectorIS2_SaIS2_EEEEbRKNS_17__normal_iteratorIT_T0_EESD_
FN:1225,1228,_ZN9__gnu_cxxeqIPKN15vectorfontstorm7contourI10TestVertexEESt6vectorIS4_SaIS4_EEEEbRKNS_17__normal_iteratorIT_T0_EESF_
FN:1225,1228,_ZN9__gnu_cxxeqIPKPN3p2t8TriangleESt6vectorIS3_SaIS3_EEEEbRKNS_17__normal_iteratorIT_T0_EESE_
FN:1225,1228,_ZN9__gnu_cxxeqIPKhSt6vectorIhSaIhEEEEbRKNS_17__normal_iteratorIT_T0_EESB_
FN:1225,1228,_ZN9__gnu_cxxeqIPKjSt6vectorIjSaIjEEEEbRKNS_17__normal_iteratorIT_T0_EESB_
FN:1225,1228,_ZN9__gnu_cxxeqIPN15vectorfontstorm5pointESt6vectorIS2_SaIS2_EEEEbRKNS_17__normal_iteratorIT_T0_EESC_
FN:1225,1228,_ZN9__gnu_cxxeqIPN15vectorfontstorm7segmentI10TestVertexEESt6vectorIS4_SaIS4_EEEEbRKNS_17__normal_iteratorIT_T0_EESE_
FN:1225,1228,_ZN9__gnu_cxxeqIPSt10shared_ptrIN3p2t5PointEESt6vectorIS4_SaIS4_EEEEbRKNS_17__normal_iteratorIT_T0_EESE_
FN:1241,1244,_ZN9__gnu_cxxneIP10TestVertexSt6vectorIS1_SaIS1_EEEEbRKNS_17__normal_iteratorIT_T0_EESB_
FN:1241,1244,_ZN9__gnu_cxxneIPDiNSt7__cxx1112basic_stringIDiSt11char_traitsIDiESaIDiEEEEEbRKNS_17__normal_iteratorIT_T0_EESD_
FN:1241,1244,_ZN9__gnu_cxxneIPK10TestVertexSt6vectorIS1_SaIS1_EEEEbRKNS_17__normal_iteratorIT_T0_EESC_
FN:1241,1244,_ZN9__gnu_cxxneIPKN15vectorfontstorm5pointESt6vectorIS2_SaIS2_EEEEbRKNS_17__normal_iteratorIT_T0_EESD_
FN:1241,1244,_ZN9__gnu_cxxneIPKN15vectorfontstorm7contourI10TestVertexEESt6vectorIS4_SaIS4_EEEEbRKNS_17__normal_iteratorIT_T0_EESF_
FN:1241,1244,_ZN9__gnu_cxxneIPKN15vectorfontstorm7segmentI10TestVertexEESt6vectorIS4_SaIS4_EEEEbRKNS_17__normal_iteratorIT_T0_EESF_
FN:1241,1244,_ZN9__gnu_cxxneIPKSt10shared_ptrIN3p2t5PointEESt6vectorIS4_SaIS4_EEEEbRKNS_17__normal_iteratorIT_T0_EESF_
FN:1241,1244,_ZN9__gnu_cxxneIPKjSt6vectorIjSaIjEEEEbRKNS_17__normal_iteratorIT_T0_EESB_
FN:1241,1244,_ZN9__gnu_cxxneIPN15vectorfontstorm5pointESt6vectorIS2_SaIS2_EEEEbRKNS_17__normal_iteratorIT_T0_EESC_
FN:1241,1244,_ZN9__gnu_cxxneIPN15vectorfontstorm7contourI10TestVertexEESt6vectorIS4_SaIS4_EEEEbRKNS_17__normal_iteratorIT_T0_EESE_
FN:1241,1244,_ZN9__gnu_cxxneIPN15vectorfontstorm7segmentI10TestVertexEESt6vectorIS4_SaIS4_EEEEbRKNS_17__normal_iteratorIT_T0_EESE_
FN:1241,1244,_ZN9__gnu_cxxneIPPN3p2t4EdgeESt6vectorIS3_SaIS3_EEEEbRKNS_17__normal_iteratorIT_T0_EESD_
FN:1241,1244,_ZN9__gnu_cxxneIPPN3p2t8TriangleESt6vectorIS3_SaIS3_EEEEbRKNS_17__normal_iteratorIT_T0_EESD_
FN:1241,1244,_ZN9__gnu_cxxneIPSt10shared_ptrIN3p2t5PointEESt6vectorIS4_SaIS4_EEEEbRKNS_17__normal_iteratorIT_T0_EESE_
FN:1241,1244,_ZN9__gnu_cxxneIPjSt6vectorIjSaIjEEEEbRKNS_17__normal_iteratorIT_T0_EESA_
FN:1258,1261,_ZN9__gnu_cxxltIPN15vectorfontstorm5pointESt6vectorIS2_SaIS2_EEEEbRKNS_17__normal_iteratorIT_T0_EESC_
FN:1258,1261,_ZN9__gnu_cxxltIPN15vectorfontstorm7segmentI10TestVertexEESt6vectorIS4_SaIS4_EEEEbRKNS_17__normal_iteratorIT_T0_EESE_
FN:1258,1261,_ZN9__gnu_cxxltIPSt10shared_ptrIN3p2t5PointEESt6vectorIS4_SaIS4_EEEEbRKNS_17__normal_iteratorIT_T0_EESE_
FN:1334,1337,_ZN9__gnu_cxxmiIP10TestVertexSt6vectorIS1_SaIS1_EEEENS_17__normal_iteratorIT_T0_E15difference_typeERKS9_SC_
FN:1334,1337,_ZN9__gnu_cxxmiIPK10TestVertexSt6vectorIS1_SaIS1_EEEENS_17__normal_iteratorIT_T0_E15difference_typeERKSA_SD_
FN:1334,1337,_ZN9__gnu_cxxmiIPKN15vectorfontstorm5pointESt6vectorIS2_SaIS2_EEEENS_17__normal_iteratorIT_T0_E15difference_typeERKSB_SE_
FN:1334,1337,_ZN9__gnu_cxxmiIPKjSt6vectorIjSaIjEEEENS_17__normal_iteratorIT_T0_E15difference_typeERKS9_SC_
FN:1334,1337,_ZN9__gnu_cxxmiIPN15vectorfontstorm5pointESt6vectorIS2_SaIS2_EEEENS_17__normal_iteratorIT_T0_E15difference_typeERKSA_SD_
FN:1334,1337,_ZN9__gnu_cxxmiIPN15vectorfontstorm7contourI10TestVertexEESt6vectorIS4_SaIS4_EEEENS_17__normal_iteratorIT_T0_E15difference_typeERKSC_SF_
FN:1334,1337,_ZN9__gnu_cxxmiIPN15vectorfontstorm7segmentI10TestVertexEESt6vectorIS4_SaIS4_EEEENS_17__normal_iteratorIT_T0_E15difference_typeERKSC_SF_
FN:1334,1337,_ZN9__gnu_cxxmiIPPN3p2t4EdgeESt6vectorIS3_SaIS3_EEEENS_17__normal_iteratorIT_T0_E15difference_typeERKSB_SE_
FN:1334,1337,_ZN9__gnu_cxxmiIPPN3p2t4NodeESt6vectorIS3_SaIS3_EEEENS_17__normal_iteratorIT_T0_E15difference_typeERKSB_SE_
FN:1334,1337,_ZN9__gnu_cxxmiIPPN3p2t8TriangleESt6vectorIS3_SaIS3_EEEENS_17__normal_iteratorIT_T0_E15difference_typeERKSB_SE_
FN:1334,1337,_ZN9__gnu_cxxmiIPSt10shared_ptrIN3p2t5PointEESt6vectorIS4_SaIS4_EEEENS_17__normal_iteratorIT_T0_E15difference_typeERKSC_SF_
FN:1334,1337,_ZN9__gnu_cxxmiIPjSt6vectorIjSaIjEEEENS_17__normal_iteratorIT_T0_E15difference_typeERKS8_SB_
FN:1357,1359,_ZSt12__niter_baseIP10TestVertexSt6vectorIS0_SaIS0_EEET_N9__gnu_cxx17__normal_iteratorIS5_T0_EE
FN:1357,1359,_ZSt12__niter_baseIPK10TestVertexSt6vectorIS0_SaIS0_EEET_N9__gnu_cxx17__normal_iteratorIS6_T0_EE
FN:1357,1359,_ZSt12__niter_baseIPKN15vectorfontstorm5pointESt6vectorIS1_SaIS1_EEET_N9__gnu_cxx17__normal_iteratorIS7_T0_EE
FN:1357,1359,_ZSt12__niter_baseIPKjSt6vectorIjSaIjEEET_N9__gnu_cxx17__normal_iteratorIS5_T0_EE
FN:1357,1359,_ZSt12__niter_baseIPN15vectorfontstorm5pointESt6vectorIS1_SaIS1_EEET_N9__gnu_cxx17__normal_iteratorIS6_T0_EE
FN:1357,1359,_ZSt12__niter_baseIPSt10shared_ptrIN3p2t5PointEESt6vectorIS3_SaIS3_EEET_N9__gnu_cxx17__normal_iteratorIS8_T0_EE
FN:1357,1359,_ZSt12__niter_baseIPjSt6vectorIjSaIjEEET_N9__gnu_cxx17__normal_iteratorIS4_T0_EE
FN:1519,1520,_ZNSt13move_iteratorIP10TestVertexEC2ES1_
FN:1519,1520,_ZNSt13move_iteratorIPjEC2ES0_
FN:1545,1546,_ZNKSt13move_iteratorIP10TestVertexE4baseEv
FN:1545,1546,_ZNKSt13move_iteratorIPjE4baseEv
FN:1561,1565,_ZNKSt13move_iteratorIP10TestVertexEdeEv
FN:1574,1578,_ZNSt13move_iteratorIP10TestVertexEppEv
FN:1748,1750,_ZSteqIP10TestVertexEbRKSt13move_iteratorIT_ES6_
FN:1763,1765,_ZStneIP10TestVertexEbRKSt13move_iteratorIT_ES6_
FN:1815,1816,_ZSt18make_move_iteratorIP10TestVertexESt13move_iteratorIT_ES3_
FN:1815,1816,_ZSt18make_move_iteratorIPjESt13move_iteratorIT_ES2_
FN:1832,1833,_ZSt32__make_move_if_noexcept_iteratorI10TestVertexSt13move_iteratorIPS0_EET0_PT_
FN:1832,1833,_ZSt32__make_move_if_noexcept_iteratorIN15vectorfontstorm7contourI10TestVertexEEPKS3_ET0_PT_
FN:1832,1833,_ZSt32__make_move_if_noexcept_iteratorIN15vectorfontstorm7segmentI10TestVertexEEPKS3_ET0_PT_
FN:1832,1833,_ZSt32__make_move_if_noexcept_iteratorIjSt13move_iteratorIPjEET0_PT_
FN:2968,2970,_ZSt12__miter_baseIPjEDTcl12__miter_basecldtfp_4baseEEESt13move_iteratorIT_E
FNDA:15666,_ZN9__gnu_cxx17__normal_iteratorIP10TestVertexSt6vectorIS1_SaIS1_EEEC2ERKS2_
FNDA:8,_ZN9__gnu_cxx17__normal_iteratorIPDiNSt7__cxx1112basic_stringIDiSt11char_traitsIDiESaIDiEEEEC2ERKS1_
FNDA:505,_ZN9__gnu_cxx17__normal_iteratorIPK10TestVertexSt6vectorIS1_SaIS1_EEEC2ERKS3_
FNDA:24564,_ZN9__gnu_cxx17__normal_iteratorIPKN15vectorfontstorm5pointESt6vectorIS2_SaIS2_EEEC2ERKS4_
FNDA:110,_ZN9__gnu_cxx17__normal_iteratorIPKN15vectorfontstorm7contourI10TestVertexEESt6vectorIS4_SaIS4_EEEC2ERKS6_
FNDA:498,_ZN9__gnu_cxx17__normal_iteratorIPKN15vectorfontstorm7segmentI10TestVertexEESt6vectorIS4_SaIS4_EEEC2ERKS6_
FNDA:3640,_ZN9__gnu_cxx17__normal_iteratorIPKPN3p2t8TriangleESt6vectorIS3_SaIS3_EEEC2ERKS5_
FNDA:180,_ZN9__gnu_cxx17__normal_iteratorIPKSt10shared_ptrIN3p2t5PointEESt6vectorIS4_SaIS4_EEEC2ERKS6_
FNDA:34,_ZN9__gnu_cxx17__normal_iteratorIPKhSt6vectorIhSaIhEEEC2ERKS2_
FNDA:343,_ZN9__gnu_cxx17__normal_iteratorIPKjSt6vectorIjSaIjEEEC2ERKS2_
FNDA:13186,_ZN9__gnu_cxx17__normal_iteratorIPN15vectorfontstorm5pointESt6vectorIS2_SaIS2_EEEC2ERKS3_
FNDA:503,_ZN9__gnu_cxx17__normal_iteratorIPN15vectorfontstorm7contourI10TestVertexEESt6vectorIS4_SaIS4_EEEC2ERKS5_
FNDA:16244,_ZN9__gnu_cxx17__normal_iteratorIPN15vectorfontstorm7segmentI10TestVertexEESt6vectorIS4_SaIS4_EEEC2ERKS5_
FNDA:6700,_ZN9__gnu_cxx17__normal_iteratorIPPN3p2t4EdgeESt6vectorIS3_SaIS3_EEEC2ERKS4_
FNDA:2500,_ZN9__gnu_cxx17__normal_iteratorIPPN3p2t4NodeESt6vectorIS3_SaIS3_EEEC2ERKS4_
FNDA:5020,_ZN9__gnu_cxx17__normal_iteratorIPPN3p2t8TriangleESt6vectorIS3_SaIS3_EEEC2ERKS4_
FNDA:6910,_ZN9__gnu_cxx17__normal_iteratorIPSt10shared_ptrIN3p2t5PointEESt6vectorIS4_SaIS4_EEEC2ERKS5_
FNDA:15732,_ZN9__gnu_cxx17__normal_iteratorIPjSt6vectorIjSaIjEEEC2ERKS1_
FNDA:35,_ZN9__gnu_cxx17__normal_iteratorIPK10TestVertexSt6vectorIS1_SaIS1_EEEC2IPS1_vEERKNS0_IT_S6_EE
FNDA:0,_ZN9__gnu_cxx17__normal_iteratorIPKN15vectorfontstorm5pointESt6vectorIS2_SaIS2_EEEC2IPS2_vEERKNS0_IT_S7_EE
FNDA:35,_ZN9__gnu_cxx17__normal_iteratorIPKjSt6vectorIjSaIjEEEC2IPjvEERKNS0_IT_S5_EE
FNDA:7118,_ZNK9__gnu_cxx17__normal_iteratorIP10TestVertexSt6vectorIS1_SaIS1_EEEdeEv
FNDA:15,_ZNK9__gnu_cxx17__normal_iteratorIPDiNSt7__cxx1112basic_stringIDiSt11char_traitsIDiESaIDiEEEEdeEv
FNDA:1629,_ZNK9__gnu_cxx17__normal_iteratorIPK10TestVertexSt6vectorIS1_SaIS1_EEEdeEv
FNDA:16039,_ZNK9__gnu_cxx17__normal_iteratorIPKN15vectorfontstorm5pointESt6vectorIS2_SaIS2_EEEdeEv
FNDA:0,_ZNK9__gnu_cxx17__normal_iteratorIPKN15vectorfontstorm7contourI10TestVertexEESt6vectorIS4_SaIS4_EEEdeEv
FNDA:2505,_ZNK9__gnu_cxx17__normal_iteratorIPKN15vectorfontstorm7segmentI10TestVertexEESt6vectorIS4_SaIS4_EEEdeEv
FNDA:980,_ZNK9__gnu_cxx17__normal_iteratorIPKSt10shared_ptrIN3p2t5PointEESt6vectorIS4_SaIS4_EEEdeEv
FNDA:3973,_ZNK9__gnu_cxx17__normal_iteratorIPN15vectorfontstorm5pointESt6vectorIS2_SaIS2_EEEdeEv
FNDA:187,_ZNK9__gnu_cxx17__normal_iteratorIPN15vectorfontstorm7contourI10TestVertexEESt6vectorIS4_SaIS4_EEEdeEv
FNDA:7795,_ZNK9__gnu_cxx17__normal_iteratorIPN15vectorfontstorm7segmentI10TestVertexEESt6vectorIS4_SaIS4_EEEdeEv
FNDA:2940,_ZNK9__gnu_cxx17__normal_iteratorIPPN3p2t4EdgeESt6vectorIS3_SaIS3_EEEdeEv
FNDA:912,_ZNK9__gnu_cxx17__normal_iteratorIPPN3p2t4NodeESt6vectorIS3_SaIS3_EEEdeEv
FNDA:2640,_ZNK9__gnu_cxx17__normal_iteratorIPPN3p2t8TriangleESt6vectorIS3_SaIS3_EEEdeEv
FNDA:8164,_ZNK9__gnu_cxx17__normal_iteratorIPSt10shared_ptrIN3p2t5PointEESt6vectorIS4_SaIS4_EEEdeEv
FNDA:8988,_ZNK9__gnu_cxx17__normal_iteratorIPjSt6vectorIjSaIjEEEdeEv
FNDA:64,_ZNK9__gnu_cxx17__normal_iteratorIPN15vectorfontstorm7contourI10TestVertexEESt6vectorIS4_SaIS4_EEEptEv
FNDA:165,_ZN9__gnu_cxx17__normal_iteratorIP10TestVertexSt6vectorIS1_SaIS1_EEEppEv
FNDA:15,_ZN9__gnu_cxx17__normal_iteratorIPDiNSt7__cxx1112basic_stringIDiSt11char_traitsIDiESaIDiEEEEppEv
FNDA:1629,_ZN9__gnu_cxx17__normal_iteratorIPK10TestVertexSt6vectorIS1_SaIS1_EEEppEv
FNDA:2535,_ZN9__gnu_cxx17__normal_iteratorIPKN15vectorfontstorm5pointESt6vectorIS2_SaIS2_EEEppEv
FNDA:0,_ZN9__gnu_cxx17__normal_iteratorIPKN15vectorfontstorm7contourI10TestVertexEESt6vectorIS4_SaIS4_EEEppEv
FNDA:2415,_ZN9__gnu_cxx17__normal_iteratorIPKN15vectorfontstorm7segmentI10TestVertexEESt6vectorIS4_SaIS4_EEEppEv
FNDA:980,_ZN9__gnu_cxx17__normal_iteratorIPKSt10shared_ptrIN3p2t5PointEESt6vectorIS4_SaIS4_EEEppEv
FNDA:307,_ZN9__gnu_cxx17__normal_iteratorIPN15vectorfontstorm5pointESt6vectorIS2_SaIS2_EEEppEv
FNDA:116,_ZN9__gnu_cxx17__normal_iteratorIPN15vectorfontstorm7contourI10TestVertexEESt6vectorIS4_SaIS4_EEEppEv
FNDA:1101,_ZN9__gnu_cxx17__normal_iteratorIPN15vectorfontstorm7segmentI10TestVertexEESt6vectorIS4_SaIS4_EEEppEv
FNDA:980,_ZN9__gnu_cxx17__normal_iteratorIPPN3p2t4EdgeESt6vectorIS3_SaIS3_EEEppEv
FNDA:444,_ZN9__gnu_cxx17__normal_iteratorIPPN3p2t8TriangleESt6vectorIS3_SaIS3_EEEppEv
FNDA:1466,_ZN9__gnu_cxx17__normal_iteratorIPSt10shared_ptrIN3p2t5PointEESt6vectorIS4_SaIS4_EEEppEv
FNDA:2036,_ZN9__gnu_cxx17__normal_iteratorIPjSt6vectorIjSaIjEEEppEv
FNDA:582,_ZN9__gnu_cxx17__normal_iteratorIPN15vectorfontstorm5pointESt6vectorIS2_SaIS2_EEEmmEv
FNDA:164,_ZN9__gnu_cxx17__normal_iteratorIPN15vectorfontstorm7segmentI10TestVertexEESt6vectorIS4_SaIS4_EEEmmEv
FNDA:2462,_ZN9__gnu_cxx17__normal_iteratorIPSt10shared_ptrIN3p2t5PointEESt6vectorIS4_SaIS4_EEEmmEv
FNDA:0,_ZNK9__gnu_cxx17__normal_iteratorIPN15vectorfontstorm5pointESt6vectorIS2_SaIS2_EEEixEl
FNDA:35,_ZN9__gnu_cxx17__normal_iteratorIPK10TestVertexSt6vectorIS1_SaIS1_EEEpLEl
FNDA:35,_ZN9__gnu_cxx17__normal_iteratorIPKjSt6vectorIjSaIjEEEpLEl
FNDA:106,_ZNK9__gnu_cxx17__normal_iteratorIP10TestVertexSt6vectorIS1_SaIS1_EEEplEl
FNDA:260,_ZNK9__gnu_cxx17__normal_iteratorIPN15vectorfontstorm5pointESt6vectorIS2_SaIS2_EEEplEl
FNDA:800,_ZNK9__gnu_cxx17__normal_iteratorIPSt10shared_ptrIN3p2t5PointEESt6vectorIS4_SaIS4_EEEplEl
FNDA:106,_ZNK9__gnu_cxx17__normal_iteratorIPjSt6vectorIjSaIjEEEplEl
FNDA:6953,_ZNK9__gnu_cxx17__normal_iteratorIP10TestVertexSt6vectorIS1_SaIS1_EEEmiEl
FNDA:8372,_ZNK9__gnu_cxx17__normal_iteratorIPKN15vectorfontstorm5pointESt6vectorIS2_SaIS2_EEEmiEl
FNDA:3285,_ZNK9__gnu_cxx17__normal_iteratorIPN15vectorfontstorm5pointESt6vectorIS2_SaIS2_EEEmiEl
FNDA:90,_ZNK9__gnu_cxx17__normal_iteratorIPN15vectorfontstorm7contourI10TestVertexEESt6vectorIS4_SaIS4_EEEmiEl
FNDA:6466,_ZNK9__gnu_cxx17__normal_iteratorIPN15vectorfontstorm7segmentI10TestVertexEESt6vectorIS4_SaIS4_EEEmiEl
FNDA:1960,_ZNK9__gnu_cxx17__normal_iteratorIPPN3p2t4EdgeESt6vectorIS3_SaIS3_EEEmiEl
FNDA:912,_ZNK9__gnu_cxx17__normal_iteratorIPPN3p2t4NodeESt6vectorIS3_SaIS3_EEEmiEl
FNDA:4392,_ZNK9__gnu_cxx17__normal_iteratorIPPN3p2t8TriangleESt6vectorIS3_SaIS3_EEEmiEl
FNDA:2780,_ZNK9__gnu_cxx17__normal_iteratorIPSt10shared_ptrIN3p2t5PointEESt6vectorIS4_SaIS4_EEEmiEl
FNDA:6952,_ZNK9__gnu_cxx17__normal_iteratorIPjSt6vectorIjSaIjEEEmiEl
FNDA:3556,_ZNK9__gnu_cxx17__normal_iteratorIP10TestVertexSt6vectorIS1_SaIS1_EEE4baseEv
FNDA:38,_ZNK9__gnu_cxx17__normal_iteratorIPDiNSt7__cxx1112basic_stringIDiSt11char_traitsIDiESaIDiEEEE4baseEv
FNDA:4008,_ZNK9__gnu_cxx17__normal_iteratorIPK10TestVertexSt6vectorIS1_SaIS1_EEE4baseEv
FNDA:7758,_ZNK9__gnu_cxx17__normal_iteratorIPKN15vectorfontstorm5pointESt6vectorIS2_SaIS2_EEE4baseEv
FNDA:110,_ZNK9__gnu_cxx17__normal_iteratorIPKN15vectorfontstorm7contourI10TestVertexEESt6vectorIS4_SaIS4_EEE4baseEv
FNDA:5238,_ZNK9__gnu_cxx17__normal_iteratorIPKN15vectorfontstorm7segmentI10TestVertexEESt6vectorIS4_SaIS4_EEE4baseEv
FNDA:3640,_ZNK9__gnu_cxx17__normal_iteratorIPKPN3p2t8TriangleESt6vectorIS3_SaIS3_EEE4baseEv
FNDA:2140,_ZNK9__gnu_cxx17__normal_iteratorIPKSt10shared_ptrIN3p2t5PointEESt6vectorIS4_SaIS4_EEE4baseEv
FNDA:34,_ZNK9__gnu_cxx17__normal_iteratorIPKhSt6vectorIhSaIhEEE4baseEv
FNDA:588,_ZNK9__gnu_cxx17__normal_iteratorIPKjSt6vectorIjSaIjEEE4baseEv
FNDA:13146,_ZNK9__gnu_cxx17__normal_iteratorIPN15vectorfontstorm5pointESt6vectorIS2_SaIS2_EEE4baseEv
FNDA:608,_ZNK9__gnu_cxx17__normal_iteratorIPN15vectorfontstorm7contourI10TestVertexEESt6vectorIS4_SaIS4_EEE4baseEv
FNDA:7250,_ZNK9__gnu_cxx17__normal_iteratorIPN15vectorfontstorm7segmentI10TestVertexEESt6vectorIS4_SaIS4_EEE4baseEv
FNDA:7384,_ZNK9__gnu_cxx17__normal_iteratorIPPN3p2t4EdgeESt6vectorIS3_SaIS3_EEE4baseEv
FNDA:1352,_ZNK9__gnu_cxx17__normal_iteratorIPPN3p2t4NodeESt6vectorIS3_SaIS3_EEE4baseEv
FNDA:2076,_ZNK9__gnu_cxx17__normal_iteratorIPPN3p2t8TriangleESt6vectorIS3_SaIS3_EEE4baseEv
FNDA:4010,_ZNK9__gnu_cxx17__normal_iteratorIPSt10shared_ptrIN3p2t5PointEESt6vectorIS4_SaIS4_EEE4baseEv
FNDA:7364,_ZNK9__gnu_cxx17__normal_iteratorIPjSt6vectorIjSaIjEEE4baseEv
FNDA:90,_ZN9__gnu_cxxeqIPK10TestVertexSt6vectorIS1_SaIS1_EEEEbRKNS_17__normal_iteratorIT_T0_EESC_
FNDA:0,_ZN9__gnu_cxxeqIPKN15vectorfontstorm5pointESt6vectorIS2_SaIS2_EEEEbRKNS_17__normal_iteratorIT_T0_EESD_
FNDA:28,_ZN9__gnu_cxxeqIPKN15vectorfontstorm7contourI10TestVertexEESt6vectorIS4_SaIS4_EEEEbRKNS_17__normal_iteratorIT_T0_EESF_
FNDA:1820,_ZN9__gnu_cxxeqIPKPN3p2t8TriangleESt6vectorIS3_SaIS3_EEEEbRKNS_17__normal_iteratorIT_T0_EESE_
FNDA:17,_ZN9__gnu_cxxeqIPKhSt6vectorIhSaIhEEEEbRKNS_17__normal_iteratorIT_T0_EESB_
FNDA:9,_ZN9__gnu_cxxeqIPKjSt6vectorIjSaIjEEEEbRKNS_17__normal_iteratorIT_T0_EESB_
FNDA:291,_ZN9__gnu_cxxeqIPN15vectorfontstorm5pointESt6vectorIS2_SaIS2_EEEEbRKNS_17__normal_iteratorIT_T0_EESC_
FNDA:26,_ZN9__gnu_cxxeqIPN15vectorfontstorm7segmentI10TestVertexEESt6vectorIS4_SaIS4_EEEEbRKNS_17__normal_iteratorIT_T0_EESE_
FNDA:68,_ZN9__gnu_cxxeqIPSt10shared_ptrIN3p2t5PointEESt6vectorIS4_SaIS4_EEEEbRKNS_17__normal_iteratorIT_T0_EESE_
FNDA:170,_ZN9__gnu_cxxneIP10TestVertexSt6vectorIS1_SaIS1_EEEEbRKNS_17__normal_iteratorIT_T0_EESB_
FNDA:19,_ZN9__gnu_cxxneIPDiNSt7__cxx1112basic_stringIDiSt11char_traitsIDiESaIDiEEEEEbRKNS_17__normal_iteratorIT_T0_EESD_
FNDA:1808,_ZN9__gnu_cxxneIPK10TestVertexSt6vectorIS1_SaIS1_EEEEbRKNS_17__normal_iteratorIT_T0_EESC_
FNDA:3619,_ZN9__gnu_cxxneIPKN15vectorfontstorm5pointESt6vectorIS2_SaIS2_EEEEbRKNS_17__normal_iteratorIT_T0_EESD_
FNDA:27,_ZN9__gnu_cxxneIPKN15vectorfontstorm7contourI10TestVertexEESt6vectorIS4_SaIS4_EEEEbRKNS_17__normal_iteratorIT_T0_EESF_
FNDA:2619,_ZN9__gnu_cxxneIPKN15vectorfontstorm7segmentI10TestVertexEESt6vectorIS4_SaIS4_EEEEbRKNS_17__normal_iteratorIT_T0_EESF_
FNDA:1070,_ZN9__gnu_cxxneIPKSt10shared_ptrIN3p2t5PointEESt6vectorIS4_SaIS4_EEEEbRKNS_17__normal_iteratorIT_T0_EESF_
FNDA:35,_ZN9__gnu_cxxneIPKjSt6vectorIjSaIjEEEEbRKNS_17__normal_iteratorIT_T0_EESB_
FNDA:276,_ZN9__gnu_cxxneIPN15vectorfontstorm5pointESt6vectorIS2_SaIS2_EEEEbRKNS_17__normal_iteratorIT_T0_EESC_
FNDA:214,_ZN9__gnu_cxxneIPN15vectorfontstorm7contourI10TestVertexEESt6vectorIS4_SaIS4_EEEEbRKNS_17__normal_iteratorIT_T0_EESE_
FNDA:1661,_ZN9__gnu_cxxneIPN15vectorfontstorm7segmentI10TestVertexEESt6vectorIS4_SaIS4_EEEEbRKNS_17__normal_iteratorIT_T0_EESE_
FNDA:1048,_ZN9__gnu_cxxneIPPN3p2t4EdgeESt6vectorIS3_SaIS3_EEEEbRKNS_17__normal_iteratorIT_T0_EESD_
FNDA:478,_ZN9__gnu_cxxneIPPN3p2t8TriangleESt6vectorIS3_SaIS3_EEEEbRKNS_17__normal_iteratorIT_T0_EESD_
FNDA:1066,_ZN9__gnu_cxxneIPSt10shared_ptrIN3p2t5PointEESt6vectorIS4_SaIS4_EEEEbRKNS_17__normal_iteratorIT_T0_EESE_
FNDA:2076,_ZN9__gnu_cxxneIPjSt6vectorIjSaIjEEEEbRKNS_17__normal_iteratorIT_T0_EESA_
FNDA:582,_ZN9__gnu_cxxltIPN15vectorfontstorm5pointESt6vectorIS2_SaIS2_EEEEbRKNS_17__normal_iteratorIT_T0_EESC_
FNDA:164,_ZN9__gnu_cxxltIPN15vectorfontstorm7segmentI10TestVertexEESt6vectorIS4_SaIS4_EEEEbRKNS_17__normal_iteratorIT_T0_EESE_
FNDA:176,_ZN9__gnu_cxxltIPSt10shared_ptrIN3p2t5PointEESt6vectorIS4_SaIS4_EEEEbRKNS_17__normal_iteratorIT_T0_EESE_
FNDA:786,_ZN9__gnu_cxxmiIP10TestVertexSt6vectorIS1_SaIS1_EEEENS_17__normal_iteratorIT_T0_E15difference_typeERKS9_SC_
FNDA:70,_ZN9__gnu_cxxmiIPK10TestVertexSt6vectorIS1_SaIS1_EEEENS_17__normal_iteratorIT_T0_E15difference_typeERKSA_SD_
FNDA:0,_ZN9__gnu_cxxmiIPKN15vectorfontstorm5pointESt6vectorIS2_SaIS2_EEEENS_17__normal_iteratorIT_T0_E15difference_typeERKSB_SE_
FNDA:70,_ZN9__gnu_cxxmiIPKjSt6vectorIjSaIjEEEENS_17__normal_iteratorIT_T0_E15difference_typeERKS9_SC_
FNDA:2582,_ZN9__gnu_cxxmiIPN15vectorfontstorm5pointESt6vectorIS2_SaIS2_EEEENS_17__normal_iteratorIT_T0_E15difference_typeERKSA_SD_
FNDA:45,_ZN9__gnu_cxxmiIPN15vectorfontstorm7contourI10TestVertexEESt6vectorIS4_SaIS4_EEEENS_17__normal_iteratorIT_T0_E15difference_typeERKSC_SF_
FNDA:887,_ZN9__gnu_cxxmiIPN15vectorfontstorm7segmentI10TestVertexEESt6vectorIS4_SaIS4_EEEENS_17__normal_iteratorIT_T0_E15difference_typeERKSC_SF_
FNDA:1322,_ZN9__gnu_cxxmiIPPN3p2t4EdgeESt6vectorIS3_SaIS3_EEEENS_17__normal_iteratorIT_T0_E15difference_typeERKSB_SE_
FNDA:338,_ZN9__gnu_cxxmiIPPN3p2t4NodeESt6vectorIS3_SaIS3_EEEENS_17__normal_iteratorIT_T0_E15difference_typeERKSB_SE_
FNDA:560,_ZN9__gnu_cxxmiIPPN3p2t8TriangleESt6vectorIS3_SaIS3_EEEENS_17__normal_iteratorIT_T0_E15difference_typeERKSB_SE_
FNDA:606,_ZN9__gnu_cxxmiIPSt10shared_ptrIN3p2t5PointEESt6vectorIS4_SaIS4_EEEENS_17__normal_iteratorIT_T0_E15difference_typeERKSC_SF_
FNDA:785,_ZN9__gnu_cxxmiIPjSt6vectorIjSaIjEEEENS_17__normal_iteratorIT_T0_E15difference_typeERKS8_SB_
FNDA:72,_ZSt12__niter_baseIP10TestVertexSt6vectorIS0_SaIS0_EEET_N9__gnu_cxx17__normal_iteratorIS5_T0_EE
FNDA:72,_ZSt12__niter_baseIPK10TestVertexSt6vectorIS0_SaIS0_EEET_N9__gnu_cxx17__normal_iteratorIS6_T0_EE
FNDA:520,_ZSt12__niter_baseIPKN15vectorfontstorm5pointESt6vectorIS1_SaIS1_EEET_N9__gnu_cxx17__normal_iteratorIS7_T0_EE
FNDA:360,_ZSt12__niter_baseIPKjSt6vectorIjSaIjEEET_N9__gnu_cxx17__normal_iteratorIS5_T0_EE
FNDA:520,_ZSt12__niter_baseIPN15vectorfontstorm5pointESt6vectorIS1_SaIS1_EEET_N9__gnu_cxx17__normal_iteratorIS6_T0_EE
FNDA:1176,_ZSt12__niter_baseIPSt10shared_ptrIN3p2t5PointEESt6vectorIS3_SaIS3_EEET_N9__gnu_cxx17__normal_iteratorIS8_T0_EE
FNDA:72,_ZSt12__niter_baseIPjSt6vectorIjSaIjEEET_N9__gnu_cxx17__normal_iteratorIS4_T0_EE
FNDA:70,_ZNSt13move_iteratorIP10TestVertexEC2ES1_
FNDA:70,_ZNSt13move_iteratorIPjEC2ES0_
FNDA:70,_ZNKSt13move_iteratorIP10TestVertexE4baseEv
FNDA:70,_ZNKSt13move_iteratorIPjE4baseEv
FNDA:0,_ZNKSt13move_iteratorIP10TestVertexEdeEv
FNDA:0,_ZNSt13move_iteratorIP10TestVertexEppEv
FNDA:35,_ZSteqIP10TestVertexEbRKSt13move_iteratorIT_ES6_
FNDA:35,_ZStneIP10TestVertexEbRKSt13move_iteratorIT_ES6_
FNDA:70,_ZSt18make_move_iteratorIP10TestVertexESt13move_iteratorIT_ES3_
FNDA:70,_ZSt18make_move_iteratorIPjESt13move_iteratorIT_ES2_
FNDA:0,_ZSt32__make_move_if_noexcept_iteratorI10TestVertexSt13move_iteratorIPS0_EET0_PT_
FNDA:180,_ZSt32__make_move_if_noexcept_iteratorIN15vectorfontstorm7contourI10TestVertexEEPKS3_ET0_PT_
FNDA:3548,_ZSt32__make_move_if_noexcept_iteratorIN15vectorfontstorm7segmentI10TestVertexEEPKS3_ET0_PT_
FNDA:0,_ZSt32__make_move_if_noexcept_iteratorIjSt13move_iteratorIPjEET0_PT_
FNDA:70,_ZSt12__miter_baseIPjEDTcl12__miter_basecldtfp_4baseEEESt13move_iteratorIT_E
FNF:150
FNH:140
DA:1076,112343
DA:1077,112343
DA:1083,70
DA:1094,70
DA:1099,63885
DA:1100,63885
DA:1104,64
DA:1105,64
DA:1109,14189
DA:1111,14189
DA:1112,14189
DA:1123,3208
DA:1125,3208
DA:1126,3208
DA:1137,0
DA:1138,0
DA:1142,70
DA:1143,70
DA:1147,1272
DA:1148,1272
DA:1157,42162
DA:1158,42162
DA:1162,70300
DA:1163,70300
DA:1225,2349
DA:1228,2349
DA:1241,16186
DA:1244,16186
DA:1258,922
DA:1261,922
DA:1334,8051
DA:1337,8051
DA:1357,2792
DA:1359,2792
DA:1519,140
DA:1520,140
DA:1545,140
DA:1546,140
DA:1561,0
DA:1565,0
DA:1574,0
DA:1576,0
DA:1577,0
DA:1748,35
DA:1750,35
DA:1763,35
DA:1765,35
DA:1815,140
DA:1816,140
DA:1832,3728
DA:1833,3728
DA:2968,70
DA:2970,70
LF:53
LH:46
end_of_record
TN:
SF:/usr/include/c++/13/bits/stl_iterator_base_funcs.h
FN:184,196,_ZSt9__advanceIN9__gnu_cxx17__normal_iteratorIPK10TestVertexSt6vectorIS2_SaIS2_EEEElEvRT_T0_St26random_access_iterator_tag
FN:184,196,_ZSt9__advanceIN9__gnu_cxx17__normal_iteratorIPKjSt6vectorIjSaIjEEEElEvRT_T0_St26random_access_iterator_tag
FNDA:35,_ZSt9__advanceIN9__gnu_cxx17__normal_iteratorIPK10TestVertexSt6vectorIS2_SaIS2_EEEElEvRT_T0_St26random_access_iterator_tag
FNDA:35,_ZSt9__advanceIN9__gnu_cxx17__normal_iteratorIPKjSt6vectorIjSaIjEEEElEvRT_T0_St26random_access_iterator_tag
FNF:2
FNH:2
DA:106,70
DA:151,4148
DA:152,4218
DA:184,70
DA:195,70
DA:196,70
DA:223,70
DA:224,70
DA:225,70
LF:9
LH:9
end_of_record
TN:
SF:/usr/include/c++/13/bits/stl_iterator_base_types.h
FNF:0
FNH:0
DA:240,2583
LF:1
LH:1
end_of_record
TN:
SF:/usr/include/c++/13/bits/stl_list.h
FN:1012,1013,_ZNKSt7__cxx114listIPN3p2t8TriangleESaIS3_EE13get_allocatorEv
FN:1022,1023,_ZNSt7__cxx114listIPN3p2t8TriangleESaIS3_EE5beginEv
FN:1042,1043,_ZNSt7__cxx114listIPN3p2t8TriangleESaIS3_EE3endEv
FN:110,111,_ZNSt8__detail17_List_node_headerC2Ev
FN:1223,1228,_ZNSt7__cxx114listIPN3p2t8TriangleESaIS3_EE4backEv
FN:1319,1325,_ZNSt7__cxx114listIPN3p2t8TriangleESaIS3_EE12emplace_backIJRS3_EEES7_DpOT_
FN:150,156,_ZNSt8__detail17_List_node_header7_M_initEv
FN:1647,1675,_ZNSt7__cxx114listIPN3p2t8TriangleESaIS3_EE6spliceESt20_List_const_iteratorIS3_EOS5_S7_
FN:1689,1690,_ZNSt7__cxx114listIPN3p2t8TriangleESaIS3_EE6spliceESt20_List_const_iteratorIS3_ERS5_S7_
FN:1988,1989,_ZNSt7__cxx114listIPN3p2t8TriangleESaIS3_EE11_M_transferESt14_List_iteratorIS3_ES7_S7_
FN:2003,2008,_ZNSt7__cxx114listIPN3p2t8TriangleESaIS3_EE9_M_insertIJRS3_EEEvSt14_List_iteratorIS3_EDpOT_
FN:2029,2033,_ZNSt7__cxx114listIPN3p2t8TriangleESaIS3_EE25_M_check_equal_allocatorsERKS5_
FN:238,238,_ZNSt10_List_nodeIPN3p2t8TriangleEE9_M_valptrEv
FN:268,269,_ZNSt14_List_iteratorIPN3p2t8TriangleEEC2EPNSt8__detail15_List_node_baseE
FN:278,279,_ZNKSt14_List_iteratorIPN3p2t8TriangleEEdeEv
FN:287,291,_ZNSt14_List_iteratorIPN3p2t8TriangleEEppEv
FN:302,306,_ZNSt14_List_iteratorIPN3p2t8TriangleEEmmEv
FN:324,325,_ZStneRKSt14_List_iteratorIPN3p2t8TriangleEES5_
FN:358,359,_ZNSt20_List_const_iteratorIPN3p2t8TriangleEEC2ERKSt14_List_iteratorIS2_E
FN:362,363,_ZNKSt20_List_const_iteratorIPN3p2t8TriangleEE13_M_const_castEv
FN:408,409,_ZSteqRKSt20_List_const_iteratorIPN3p2t8TriangleEES5_
FN:455,458,_ZNSt7__cxx1110_List_baseIPN3p2t8TriangleESaIS3_EE10_List_implC2Ev
FN:471,473,_ZNSt7__cxx1110_List_baseIPN3p2t8TriangleESaIS3_EE10_List_implC2EOSaISt10_List_nodeIS3_EE
FN:484,484,_ZNSt7__cxx1110_List_baseIPN3p2t8TriangleESaIS3_EE11_M_inc_sizeEm
FN:486,486,_ZNSt7__cxx1110_List_baseIPN3p2t8TriangleESaIS3_EE11_M_dec_sizeEm
FN:517,518,_ZNSt7__cxx1110_List_baseIPN3p2t8TriangleESaIS3_EE11_M_get_nodeEv
FN:521,522,_ZNSt7__cxx1110_List_baseIPN3p2t8TriangleESaIS3_EE11_M_put_nodeEPSt10_List_nodeIS3_E
FN:528,529,_ZNSt7__cxx1110_List_baseIPN3p2t8TriangleESaIS3_EE21_M_get_Node_allocatorEv
FN:532,533,_ZNKSt7__cxx1110_List_baseIPN3p2t8TriangleESaIS3_EE21_M_get_Node_allocatorEv
FN:536,536,_ZNSt7__cxx1110_List_baseIPN3p2t8TriangleESaIS3_EEC2Ev
FN:564,566,_ZNSt7__cxx1110_List_baseIPN3p2t8TriangleESaIS3_EEC2EOSaISt10_List_nodeIS3_EE
FN:574,575,_ZNSt7__cxx1110_List_baseIPN3p2t8TriangleESaIS3_EED2Ev
FN:708,717,_ZNSt7__cxx114listIPN3p2t8TriangleESaIS3_EE14_M_create_nodeIJRS3_EEEPSt10_List_nodeIS3_EDpOT_
FN:749,749,_ZNSt7__cxx114listIPN3p2t8TriangleESaIS3_EEC2Ev
FN:759,760,_ZNSt7__cxx114listIPN3p2t8TriangleESaIS3_EEC2ERKS4_
FN:903,903,_ZNSt7__cxx114listIPN3p2t8TriangleESaIS3_EED2Ev
FNDA:0,_ZNKSt7__cxx114listIPN3p2t8TriangleESaIS3_EE13get_allocatorEv
FNDA:68,_ZNSt7__cxx114listIPN3p2t8TriangleESaIS3_EE5beginEv
FNDA:3384,_ZNSt7__cxx114listIPN3p2t8TriangleESaIS3_EE3endEv
FNDA:68,_ZNSt8__detail17_List_node_headerC2Ev
FNDA:1658,_ZNSt7__cxx114listIPN3p2t8TriangleESaIS3_EE4backEv
FNDA:1658,_ZNSt7__cxx114listIPN3p2t8TriangleESaIS3_EE12emplace_backIJRS3_EEES7_DpOT_
FNDA:68,_ZNSt8__detail17_List_node_header7_M_initEv
FNDA:0,_ZNSt7__cxx114listIPN3p2t8TriangleESaIS3_EE6spliceESt20_List_const_iteratorIS3_EOS5_S7_
FNDA:0,_ZNSt7__cxx114listIPN3p2t8TriangleESaIS3_EE6spliceESt20_List_const_iteratorIS3_ERS5_S7_
FNDA:0,_ZNSt7__cxx114listIPN3p2t8TriangleESaIS3_EE11_M_transferESt14_List_iteratorIS3_ES7_S7_
FNDA:1658,_ZNSt7__cxx114listIPN3p2t8TriangleESaIS3_EE9_M_insertIJRS3_EEEvSt14_List_iteratorIS3_EDpOT_
FNDA:0,_ZNSt7__cxx114listIPN3p2t8TriangleESaIS3_EE25_M_check_equal_allocatorsERKS5_
FNDA:6632,_ZNSt10_List_nodeIPN3p2t8TriangleEE9_M_valptrEv
FNDA:3452,_ZNSt14_List_iteratorIPN3p2t8TriangleEEC2EPNSt8__detail15_List_node_baseE
FNDA:3316,_ZNKSt14_List_iteratorIPN3p2t8TriangleEEdeEv
FNDA:1658,_ZNSt14_List_iteratorIPN3p2t8TriangleEEppEv
FNDA:1658,_ZNSt14_List_iteratorIPN3p2t8TriangleEEmmEv
FNDA:1726,_ZStneRKSt14_List_iteratorIPN3p2t8TriangleEES5_
FNDA:0,_ZNSt20_List_const_iteratorIPN3p2t8TriangleEEC2ERKSt14_List_iteratorIS2_E
FNDA:0,_ZNKSt20_List_const_iteratorIPN3p2t8TriangleEE13_M_const_castEv
FNDA:0,_ZSteqRKSt20_List_const_iteratorIPN3p2t8TriangleEES5_
FNDA:68,_ZNSt7__cxx1110_List_baseIPN3p2t8TriangleESaIS3_EE10_List_implC2Ev
FNDA:0,_ZNSt7__cxx1110_List_baseIPN3p2t8TriangleESaIS3_EE10_List_implC2EOSaISt10_List_nodeIS3_EE
FNDA:1658,_ZNSt7__cxx1110_List_baseIPN3p2t8TriangleESaIS3_EE11_M_inc_sizeEm
FNDA:0,_ZNSt7__cxx1110_List_baseIPN3p2t8TriangleESaIS3_EE11_M_dec_sizeEm
FNDA:1658,_ZNSt7__cxx1110_List_baseIPN3p2t8TriangleESaIS3_EE11_M_get_nodeEv
FNDA:1658,_ZNSt7__cxx1110_List_baseIPN3p2t8TriangleESaIS3_EE11_M_put_nodeEPSt10_List_nodeIS3_E
FNDA:3316,_ZNSt7__cxx1110_List_baseIPN3p2t8TriangleESaIS3_EE21_M_get_Node_allocatorEv
FNDA:0,_ZNKSt7__cxx1110_List_baseIPN3p2t8TriangleESaIS3_EE21_M_get_Node_allocatorEv
FNDA:68,_ZNSt7__cxx1110_List_baseIPN3p2t8TriangleESaIS3_EEC2Ev
FNDA:0,_ZNSt7__cxx1110_List_baseIPN3p2t8TriangleESaIS3_EEC2EOSaISt10_List_nodeIS3_EE
FNDA:68,_ZNSt7__cxx1110_List_baseIPN3p2t8TriangleESaIS3_EED2Ev
FNDA:1658,_ZNSt7__cxx114listIPN3p2t8TriangleESaIS3_EE14_M_create_nodeIJRS3_EEEPSt10_List_nodeIS3_EDpOT_
FNDA:68,_ZNSt7__cxx114listIPN3p2t8TriangleESaIS3_EEC2Ev
FNDA:0,_ZNSt7__cxx114listIPN3p2t8TriangleESaIS3_EEC2ERKS4_
FNDA:68,_ZNSt7__cxx114listIPN3p2t8TriangleESaIS3_EED2Ev
FNF:36
FNH:23
DA:110,68
DA:111,68
DA:150,68
DA:152,68
DA:154,68
DA:156,68
DA:238,6632
DA:268,3452
DA:269,3452
DA:278,3316
DA:279,3316
DA:287,1658
DA:289,1658
DA:290,1658
DA:302,1658
DA:304,1658
DA:305,1658
DA:324,1726
DA:325,1726
DA:358,0
DA:359,0
DA:362,0
DA:363,0
DA:408,0
DA:409,0
DA:455,68
DA:457,68
DA:458,68
DA:471,0
DA:472,0
DA:473,0
DA:484,1658
DA:486,0
DA:517,1658
DA:518,3316
DA:521,1658
DA:522,1658
DA:528,3316
DA:529,3316
DA:532,0
DA:533,0
DA:536,68
DA:564,0
DA:565,0
DA:566,0
DA:574,68
DA:575,68
DA:708,1658
DA:710,1658
DA:711,1658
DA:712,1658
DA:713,1658
DA:715,1658
DA:716,1658
DA:717,1658
DA:749,68
DA:759,0
DA:760,0
DA:903,68
DA:1012,0
DA:1013,0
DA:1022,68
DA:1023,68
DA:1042,3384
DA:1043,3384
DA:1223,1658
DA:1225,1658
DA:1226,1658
DA:1227,1658
DA:1319,1658
DA:1321,1658
DA:1323,1658
DA:1647,0
DA:1662,0
DA:1663,0
DA:1664,0
DA:1665,0
DA:1667,0
DA:1668,0
DA:1670,0
DA:1673,0
DA:1674,0
DA:1689,0
DA:1690,0
DA:1988,0
DA:1989,0
DA:2003,1658
DA:2005,1658
DA:2006,1658
DA:2007,1658
DA:2008,1658
DA:2029,0
DA:2031,0
DA:2032,0
DA:2033,0
LF:95
LH:58
end_of_record
TN:
SF:/usr/include/c++/13/bits/stl_pair.h
FN:687,689,_ZNSt4pairIKDiN15vectorfontstorm5glyphI10TestVertexEEEC2IRS0_S4_Lb1EEEOT_OT0_
FN:687,689,_ZNSt4pairINSt8__detail14_Node_iteratorIS_IKDiN15vectorfontstorm5glyphI10TestVertexEEELb0ELb0EEEbEC2IRS8_bLb1EEEOT_OT0_
FN:687,689,_ZNSt4pairINSt8__detail14_Node_iteratorIS_IKDiN15vectorfontstorm5glyphI10TestVertexEEELb0ELb0EEEbEC2IS8_bLb1EEEOT_OT0_
FNDA:27,_ZNSt4pairIKDiN15vectorfontstorm5glyphI10TestVertexEEEC2IRS0_S4_Lb1EEEOT_OT0_
FNDA:27,_ZNSt4pairINSt8__detail14_Node_iteratorIS_IKDiN15vectorfontstorm5glyphI10TestVertexEEELb0ELb0EEEbEC2IRS8_bLb1EEEOT_OT0_
FNDA:0,_ZNSt4pairINSt8__detail14_Node_iteratorIS_IKDiN15vectorfontstorm5glyphI10TestVertexEEELb0ELb0EEEbEC2IS8_bLb1EEEOT_OT0_
FNF:3
FNH:2
DA:687,54
DA:688,54
DA:689,54
LF:3
LH:3
end_of_record
TN:
SF:/usr/include/c++/13/bits/stl_uninitialized.h
FN:1069,1079,_ZSt19__relocate_object_aI10TestVertexS0_SaIS0_EEvPT_PT0_RT1_
FN:1069,1079,_ZSt19__relocate_object_aIN15vectorfontstorm5pointES1_SaIS1_EEvPT_PT0_RT1_
FN:1069,1079,_ZSt19__relocate_object_aISt10shared_ptrIN3p2t5PointEES3_SaIS3_EEvPT_PT0_RT1_
FN:1091,1108,_ZSt14__relocate_a_1IP10TestVertexS1_SaIS0_EET0_T_S4_S3_RT1_
FN:1091,1108,_ZSt14__relocate_a_1IPN15vectorfontstorm5pointES2_SaIS1_EET0_T_S5_S4_RT1_
FN:1091,1108,_ZSt14__relocate_a_1IPSt10shared_ptrIN3p2t5PointEES4_SaIS3_EET0_T_S7_S6_RT1_
FN:1114,1134,_ZSt14__relocate_a_1IPN3p2t4EdgeES2_ENSt9enable_ifIXsrSt24__is_bitwise_relocatableIT_vE5valueEPS5_E4typeES7_S7_S7_RSaIT0_E
FN:1114,1134,_ZSt14__relocate_a_1IPN3p2t4NodeES2_ENSt9enable_ifIXsrSt24__is_bitwise_relocatableIT_vE5valueEPS5_E4typeES7_S7_S7_RSaIT0_E
FN:1114,1134,_ZSt14__relocate_a_1IPN3p2t8TriangleES2_ENSt9enable_ifIXsrSt24__is_bitwise_relocatableIT_vE5valueEPS5_E4typeES7_S7_S7_RSaIT0_E
FN:1114,1134,_ZSt14__relocate_a_1IjjENSt9enable_ifIXsrSt24__is_bitwise_relocatableIT_vE5valueEPS2_E4typeES4_S4_S4_RSaIT0_E
FN:113,128,_ZSt16__do_uninit_copyIN9__gnu_cxx17__normal_iteratorIPK10TestVertexSt6vectorIS2_SaIS2_EEEEPS2_ET0_T_SB_SA_
FN:113,128,_ZSt16__do_uninit_copyIN9__gnu_cxx17__normal_iteratorIPKN15vectorfontstorm5pointESt6vectorIS3_SaIS3_EEEEPS3_ET0_T_SC_SB_
FN:113,128,_ZSt16__do_uninit_copyIN9__gnu_cxx17__normal_iteratorIPKN15vectorfontstorm7contourI10TestVertexEESt6vectorIS5_SaIS5_EEEEPS5_ET0_T_SE_SD_
FN:113,128,_ZSt16__do_uninit_copyIN9__gnu_cxx17__normal_iteratorIPKN15vectorfontstorm7segmentI10TestVertexEESt6vectorIS5_SaIS5_EEEEPS5_ET0_T_SE_SD_
FN:113,128,_ZSt16__do_uninit_copyIN9__gnu_cxx17__normal_iteratorIPKSt10shared_ptrIN3p2t5PointEESt6vectorIS5_SaIS5_EEEEPS5_ET0_T_SE_SD_
FN:113,128,_ZSt16__do_uninit_copyIP10TestVertexS1_ET0_T_S3_S2_
FN:113,128,_ZSt16__do_uninit_copyIPKN15vectorfontstorm7contourI10TestVertexEEPS3_ET0_T_S8_S7_
FN:113,128,_ZSt16__do_uninit_copyIPKN15vectorfontstorm7segmentI10TestVertexEEPS3_ET0_T_S8_S7_
FN:113,128,_ZSt16__do_uninit_copyIPN15vectorfontstorm5pointES2_ET0_T_S4_S3_
FN:113,128,_ZSt16__do_uninit_copyISt13move_iteratorIP10TestVertexES2_ET0_T_S5_S4_
FN:1141,1150,_ZSt12__relocate_aIP10TestVertexS1_SaIS0_EET0_T_S4_S3_RT1_
FN:1141,1150,_ZSt12__relocate_aIPN15vectorfontstorm5pointES2_SaIS1_EET0_T_S5_S4_RT1_
FN:1141,1150,_ZSt12__relocate_aIPPN3p2t4EdgeES3_SaIS2_EET0_T_S6_S5_RT1_
FN:1141,1150,_ZSt12__relocate_aIPPN3p2t4NodeES3_SaIS2_EET0_T_S6_S5_RT1_
FN:1141,1150,_ZSt12__relocate_aIPPN3p2t8TriangleES3_SaIS2_EET0_T_S6_S5_RT1_
FN:1141,1150,_ZSt12__relocate_aIPSt10shared_ptrIN3p2t5PointEES4_SaIS3_EET0_T_S7_S6_RT1_
FN:1141,1150,_ZSt12__relocate_aIPjS0_SaIjEET0_T_S3_S2_RT1_
FN:135,137,_ZNSt20__uninitialized_copyILb0EE13__uninit_copyIN9__gnu_cxx17__normal_iteratorIPK10TestVertexSt6vectorIS4_SaIS4_EEEEPS4_EET0_T_SD_SC_
FN:135,137,_ZNSt20__uninitialized_copyILb0EE13__uninit_copyIN9__gnu_cxx17__normal_iteratorIPKN15vectorfontstorm5pointESt6vectorIS5_SaIS5_EEEEPS5_EET0_T_SE_SD_
FN:135,137,_ZNSt20__uninitialized_copyILb0EE13__uninit_copyIN9__gnu_cxx17__normal_iteratorIPKN15vectorfontstorm7contourI10TestVertexEESt6vectorIS7_SaIS7_EEEEPS7_EET0_T_SG_SF_
FN:135,137,_ZNSt20__uninitialized_copyILb0EE13__uninit_copyIN9__gnu_cxx17__normal_iteratorIPKN15vectorfontstorm7segmentI10TestVertexEESt6vectorIS7_SaIS7_EEEEPS7_EET0_T_SG_SF_
FN:135,137,_ZNSt20__uninitialized_copyILb0EE13__uninit_copyIN9__gnu_cxx17__normal_iteratorIPKSt10shared_ptrIN3p2t5PointEESt6vectorIS7_SaIS7_EEEEPS7_EET0_T_SG_SF_
FN:135,137,_ZNSt20__uninitialized_copyILb0EE13__uninit_copyIP10TestVertexS3_EET0_T_S5_S4_
FN:135,137,_ZNSt20__uninitialized_copyILb0EE13__uninit_copyIPKN15vectorfontstorm7contourI10TestVertexEEPS5_EET0_T_SA_S9_
FN:135,137,_ZNSt20__uninitialized_copyILb0EE13__uninit_copyIPKN15vectorfontstorm7segmentI10TestVertexEEPS5_EET0_T_SA_S9_
FN:135,137,_ZNSt20__uninitialized_copyILb0EE13__uninit_copyIPN15vectorfontstorm5pointES4_EET0_T_S6_S5_
FN:135,137,_ZNSt20__uninitialized_copyILb0EE13__uninit_copyISt13move_iteratorIP10TestVertexES4_EET0_T_S7_S6_
FN:145,147,_ZNSt20__uninitialized_copyILb1EE13__uninit_copyIN9__gnu_cxx17__normal_iteratorIPKjSt6vectorIjSaIjEEEEPjEET0_T_SC_SB_
FN:145,147,_ZNSt20__uninitialized_copyILb1EE13__uninit_copyIPjS2_EET0_T_S4_S3_
FN:145,147,_ZNSt20__uninitialized_copyILb1EE13__uninit_copyISt13move_iteratorIPjES3_EET0_T_S6_S5_
FN:163,186,_ZSt18uninitialized_copyIN9__gnu_cxx17__normal_iteratorIPK10TestVertexSt6vectorIS2_SaIS2_EEEEPS2_ET0_T_SB_SA_
FN:163,186,_ZSt18uninitialized_copyIN9__gnu_cxx17__normal_iteratorIPKN15vectorfontstorm5pointESt6vectorIS3_SaIS3_EEEEPS3_ET0_T_SC_SB_
FN:163,186,_ZSt18uninitialized_copyIN9__gnu_cxx17__normal_iteratorIPKN15vectorfontstorm7contourI10TestVertexEESt6vectorIS5_SaIS5_EEEEPS5_ET0_T_SE_SD_
FN:163,186,_ZSt18uninitialized_copyIN9__gnu_cxx17__normal_iteratorIPKN15vectorfontstorm7segmentI10TestVertexEESt6vectorIS5_SaIS5_EEEEPS5_ET0_T_SE_SD_
FN:163,186,_ZSt18uninitialized_copyIN9__gnu_cxx17__normal_iteratorIPKSt10shared_ptrIN3p2t5PointEESt6vectorIS5_SaIS5_EEEEPS5_ET0_T_SE_SD_
FN:163,186,_ZSt18uninitialized_copyIN9__gnu_cxx17__normal_iteratorIPKjSt6vectorIjSaIjEEEEPjET0_T_SA_S9_
FN:163,186,_ZSt18uninitialized_copyIP10TestVertexS1_ET0_T_S3_S2_
FN:163,186,_ZSt18uninitialized_copyIPKN15vectorfontstorm7contourI10TestVertexEEPS3_ET0_T_S8_S7_
FN:163,186,_ZSt18uninitialized_copyIPKN15vectorfontstorm7segmentI10TestVertexEEPS3_ET0_T_S8_S7_
FN:163,186,_ZSt18uninitialized_copyIPN15vectorfontstorm5pointES2_ET0_T_S4_S3_
FN:163,186,_ZSt18uninitialized_copyIPjS0_ET0_T_S2_S1_
FN:163,186,_ZSt18uninitialized_copyISt13move_iteratorIP10TestVertexES2_ET0_T_S5_S4_
FN:163,186,_ZSt18uninitialized_copyISt13move_iteratorIPjES1_ET0_T_S4_S3_
FN:366,374,_ZSt22__uninitialized_copy_aIN9__gnu_cxx17__normal_iteratorIPK10TestVertexSt6vectorIS2_SaIS2_EEEEPS2_S2_ET0_T_SB_SA_RSaIT1_E
FN:366,374,_ZSt22__uninitialized_copy_aIN9__gnu_cxx17__normal_iteratorIPKN15vectorfontstorm5pointESt6vectorIS3_SaIS3_EEEEPS3_S3_ET0_T_SC_SB_RSaIT1_E
FN:366,374,_ZSt22__uninitialized_copy_aIN9__gnu_cxx17__normal_iteratorIPKN15vectorfontstorm7contourI10TestVertexEESt6vectorIS5_SaIS5_EEEEPS5_S5_ET0_T_SE_SD_RSaIT1_E
FN:366,374,_ZSt22__uninitialized_copy_aIN9__gnu_cxx17__normal_iteratorIPKN15vectorfontstorm7segmentI10TestVertexEESt6vectorIS5_SaIS5_EEEEPS5_S5_ET0_T_SE_SD_RSaIT1_E
FN:366,374,_ZSt22__uninitialized_copy_aIN9__gnu_cxx17__normal_iteratorIPKSt10shared_ptrIN3p2t5PointEESt6vectorIS5_SaIS5_EEEEPS5_S5_ET0_T_SE_SD_RSaIT1_E
FN:366,374,_ZSt22__uninitialized_copy_aIN9__gnu_cxx17__normal_iteratorIPKjSt6vectorIjSaIjEEEEPjjET0_T_SA_S9_RSaIT1_E
FN:366,374,_ZSt22__uninitialized_copy_aIP10TestVertexS1_S0_ET0_T_S3_S2_RSaIT1_E
FN:366,374,_ZSt22__uninitialized_copy_aIPKN15vectorfontstorm7contourI10TestVertexEEPS3_S3_ET0_T_S8_S7_RSaIT1_E
FN:366,374,_ZSt22__uninitialized_copy_aIPKN15vectorfontstorm7segmentI10TestVertexEEPS3_S3_ET0_T_S8_S7_RSaIT1_E
FN:366,374,_ZSt22__uninitialized_copy_aIPN15vectorfontstorm5pointES2_S1_ET0_T_S4_S3_RSaIT1_E
FN:366,374,_ZSt22__uninitialized_copy_aIPjS0_jET0_T_S2_S1_RSaIT1_E
FN:366,374,_ZSt22__uninitialized_copy_aISt13move_iteratorIP10TestVertexES2_S1_ET0_T_S5_S4_RSaIT1_E
FN:366,374,_ZSt22__uninitialized_copy_aISt13move_iteratorIPjES1_jET0_T_S4_S3_RSaIT1_E
FN:381,387,_ZSt22__uninitialized_move_aIP10TestVertexS1_SaIS0_EET0_T_S4_S3_RT1_
FN:381,387,_ZSt22__uninitialized_move_aIPjS0_SaIjEET0_T_S3_S2_RT1_
FN:393,401,_ZSt34__uninitialized_move_if_noexcept_aIP10TestVertexS1_SaIS0_EET0_T_S4_S3_RT1_
FN:393,401,_ZSt34__uninitialized_move_if_noexcept_aIPN15vectorfontstorm7contourI10TestVertexEES4_SaIS3_EET0_T_S7_S6_RT1_
FN:393,401,_ZSt34__uninitialized_move_if_noexcept_aIPN15vectorfontstorm7segmentI10TestVertexEES4_SaIS3_EET0_T_S7_S6_RT1_
FN:393,401,_ZSt34__uninitialized_move_if_noexcept_aIPjS0_SaIjEET0_T_S3_S2_RT1_
FN:660,671,_ZNSt27__uninitialized_default_n_1ILb1EE18__uninit_default_nIPhmEET_S3_T0_
FN:696,713,_ZSt25__uninitialized_default_nIPhmET_S1_T0_
FN:777,779,_ZSt27__uninitialized_default_n_aIPhmhET_S1_T0_RSaIT1_E
FNDA:10336,_ZSt19__relocate_object_aI10TestVertexS0_SaIS0_EEvPT_PT0_RT1_
FNDA:1543,_ZSt19__relocate_object_aIN15vectorfontstorm5pointES1_SaIS1_EEvPT_PT0_RT1_
FNDA:1505,_ZSt19__relocate_object_aISt10shared_ptrIN3p2t5PointEES3_SaIS3_EEvPT_PT0_RT1_
FNDA:1537,_ZSt14__relocate_a_1IP10TestVertexS1_SaIS0_EET0_T_S4_S3_RT1_
FNDA:5164,_ZSt14__relocate_a_1IPN15vectorfontstorm5pointES2_SaIS1_EET0_T_S5_S4_RT1_
FNDA:900,_ZSt14__relocate_a_1IPSt10shared_ptrIN3p2t5PointEES4_SaIS3_EET0_T_S7_S6_RT1_
FNDA:2644,_ZSt14__relocate_a_1IPN3p2t4EdgeES2_ENSt9enable_ifIXsrSt24__is_bitwise_relocatableIT_vE5valueEPS5_E4typeES7_S7_S7_RSaIT0_E
FNDA:676,_ZSt14__relocate_a_1IPN3p2t4NodeES2_ENSt9enable_ifIXsrSt24__is_bitwise_relocatableIT_vE5valueEPS5_E4typeES7_S7_S7_RSaIT0_E
FNDA:1120,_ZSt14__relocate_a_1IPN3p2t8TriangleES2_ENSt9enable_ifIXsrSt24__is_bitwise_relocatableIT_vE5valueEPS5_E4typeES7_S7_S7_RSaIT0_E
FNDA:1535,_ZSt14__relocate_a_1IjjENSt9enable_ifIXsrSt24__is_bitwise_relocatableIT_vE5valueEPS2_E4typeES4_S4_S4_RSaIT0_E
FNDA:144,_ZSt16__do_uninit_copyIN9__gnu_cxx17__normal_iteratorIPK10TestVertexSt6vectorIS2_SaIS2_EEEEPS2_ET0_T_SB_SA_
FNDA:1084,_ZSt16__do_uninit_copyIN9__gnu_cxx17__normal_iteratorIPKN15vectorfontstorm5pointESt6vectorIS3_SaIS3_EEEEPS3_ET0_T_SC_SB_
FNDA:27,_ZSt16__do_uninit_copyIN9__gnu_cxx17__normal_iteratorIPKN15vectorfontstorm7contourI10TestVertexEESt6vectorIS5_SaIS5_EEEEPS5_ET0_T_SE_SD_
FNDA:24,_ZSt16__do_uninit_copyIN9__gnu_cxx17__normal_iteratorIPKN15vectorfontstorm7segmentI10TestVertexEESt6vectorIS5_SaIS5_EEEEPS5_ET0_T_SE_SD_
FNDA:68,_ZSt16__do_uninit_copyIN9__gnu_cxx17__normal_iteratorIPKSt10shared_ptrIN3p2t5PointEESt6vectorIS5_SaIS5_EEEEPS5_ET0_T_SE_SD_
FNDA:0,_ZSt16__do_uninit_copyIP10TestVertexS1_ET0_T_S3_S2_
FNDA:90,_ZSt16__do_uninit_copyIPKN15vectorfontstorm7contourI10TestVertexEEPS3_ET0_T_S8_S7_
FNDA:1774,_ZSt16__do_uninit_copyIPKN15vectorfontstorm7segmentI10TestVertexEEPS3_ET0_T_S8_S7_
FNDA:0,_ZSt16__do_uninit_copyIPN15vectorfontstorm5pointES2_ET0_T_S4_S3_
FNDA:35,_ZSt16__do_uninit_copyISt13move_iteratorIP10TestVertexES2_ET0_T_S5_S4_
FNDA:1537,_ZSt12__relocate_aIP10TestVertexS1_SaIS0_EET0_T_S4_S3_RT1_
FNDA:5164,_ZSt12__relocate_aIPN15vectorfontstorm5pointES2_SaIS1_EET0_T_S5_S4_RT1_
FNDA:2644,_ZSt12__relocate_aIPPN3p2t4EdgeES3_SaIS2_EET0_T_S6_S5_RT1_
FNDA:676,_ZSt12__relocate_aIPPN3p2t4NodeES3_SaIS2_EET0_T_S6_S5_RT1_
FNDA:1120,_ZSt12__relocate_aIPPN3p2t8TriangleES3_SaIS2_EET0_T_S6_S5_RT1_
FNDA:900,_ZSt12__relocate_aIPSt10shared_ptrIN3p2t5PointEES4_SaIS3_EET0_T_S7_S6_RT1_
FNDA:1535,_ZSt12__relocate_aIPjS0_SaIjEET0_T_S3_S2_RT1_
FNDA:144,_ZNSt20__uninitialized_copyILb0EE13__uninit_copyIN9__gnu_cxx17__normal_iteratorIPK10TestVertexSt6vectorIS4_SaIS4_EEEEPS4_EET0_T_SD_SC_
FNDA:1084,_ZNSt20__uninitialized_copyILb0EE13__uninit_copyIN9__gnu_cxx17__normal_iteratorIPKN15vectorfontstorm5pointESt6vectorIS5_SaIS5_EEEEPS5_EET0_T_SE_SD_
FNDA:27,_ZNSt20__uninitialized_copyILb0EE13__uninit_copyIN9__gnu_cxx17__normal_iteratorIPKN15vectorfontstorm7contourI10TestVertexEESt6vectorIS7_SaIS7_EEEEPS7_EET0_T_SG_SF_
FNDA:24,_ZNSt20__uninitialized_copyILb0EE13__uninit_copyIN9__gnu_cxx17__normal_iteratorIPKN15vectorfontstorm7segmentI10TestVertexEESt6vectorIS7_SaIS7_EEEEPS7_EET0_T_SG_SF_
FNDA:68,_ZNSt20__uninitialized_copyILb0EE13__uninit_copyIN9__gnu_cxx17__normal_iteratorIPKSt10shared_ptrIN3p2t5PointEESt6vectorIS7_SaIS7_EEEEPS7_EET0_T_SG_SF_
FNDA:0,_ZNSt20__uninitialized_copyILb0EE13__uninit_copyIP10TestVertexS3_EET0_T_S5_S4_
FNDA:90,_ZNSt20__uninitialized_copyILb0EE13__uninit_copyIPKN15vectorfontstorm7contourI10TestVertexEEPS5_EET0_T_SA_S9_
FNDA:1774,_ZNSt20__uninitialized_copyILb0EE13__uninit_copyIPKN15vectorfontstorm7segmentI10TestVertexEEPS5_EET0_T_SA_S9_
FNDA:0,_ZNSt20__uninitialized_copyILb0EE13__uninit_copyIPN15vectorfontstorm5pointES4_EET0_T_S6_S5_
FNDA:35,_ZNSt20__uninitialized_copyILb0EE13__uninit_copyISt13move_iteratorIP10TestVertexES4_EET0_T_S7_S6_
FNDA:144,_ZNSt20__uninitialized_copyILb1EE13__uninit_copyIN9__gnu_cxx17__normal_iteratorIPKjSt6vectorIjSaIjEEEEPjEET0_T_SC_SB_
FNDA:0,_ZNSt20__uninitialized_copyILb1EE13__uninit_copyIPjS2_EET0_T_S4_S3_
FNDA:35,_ZNSt20__uninitialized_copyILb1EE13__uninit_copyISt13move_iteratorIPjES3_EET0_T_S6_S5_
FNDA:144,_ZSt18uninitialized_copyIN9__gnu_cxx17__normal_iteratorIPK10TestVertexSt6vectorIS2_SaIS2_EEEEPS2_ET0_T_SB_SA_
FNDA:1084,_ZSt18uninitialized_copyIN9__gnu_cxx17__normal_iteratorIPKN15vectorfontstorm5pointESt6vectorIS3_SaIS3_EEEEPS3_ET0_T_SC_SB_
FNDA:27,_ZSt18uninitialized_copyIN9__gnu_cxx17__normal_iteratorIPKN15vectorfontstorm7contourI10TestVertexEESt6vectorIS5_SaIS5_EEEEPS5_ET0_T_SE_SD_
FNDA:24,_ZSt18uninitialized_copyIN9__gnu_cxx17__normal_iteratorIPKN15vectorfontstorm7segmentI10TestVertexEESt6vectorIS5_SaIS5_EEEEPS5_ET0_T_SE_SD_
FNDA:68,_ZSt18uninitialized_copyIN9__gnu_cxx17__normal_iteratorIPKSt10shared_ptrIN3p2t5PointEESt6vectorIS5_SaIS5_EEEEPS5_ET0_T_SE_SD_
FNDA:144,_ZSt18uninitialized_copyIN9__gnu_cxx17__normal_iteratorIPKjSt6vectorIjSaIjEEEEPjET0_T_SA_S9_
FNDA:0,_ZSt18uninitialized_copyIP10TestVertexS1_ET0_T_S3_S2_
FNDA:90,_ZSt18uninitialized_copyIPKN15vectorfontstorm7contourI10TestVertexEEPS3_ET0_T_S8_S7_
FNDA:1774,_ZSt18uninitialized_copyIPKN15vectorfontstorm7segmentI10TestVertexEEPS3_ET0_T_S8_S7_
FNDA:0,_ZSt18uninitialized_copyIPN15vectorfontstorm5pointES2_ET0_T_S4_S3_
FNDA:0,_ZSt18uninitialized_copyIPjS0_ET0_T_S2_S1_
FNDA:35,_ZSt18uninitialized_copyISt13move_iteratorIP10TestVertexES2_ET0_T_S5_S4_
FNDA:35,_ZSt18uninitialized_copyISt13move_iteratorIPjES1_ET0_T_S4_S3_
FNDA:144,_ZSt22__uninitialized_copy_aIN9__gnu_cxx17__normal_iteratorIPK10TestVertexSt6vectorIS2_SaIS2_EEEEPS2_S2_ET0_T_SB_SA_RSaIT1_E
FNDA:1084,_ZSt22__uninitialized_copy_aIN9__gnu_cxx17__normal_iteratorIPKN15vectorfontstorm5pointESt6vectorIS3_SaIS3_EEEEPS3_S3_ET0_T_SC_SB_RSaIT1_E
FNDA:27,_ZSt22__uninitialized_copy_aIN9__gnu_cxx17__normal_iteratorIPKN15vectorfontstorm7contourI10TestVertexEESt6vectorIS5_SaIS5_EEEEPS5_S5_ET0_T_SE_SD_RSaIT1_E
FNDA:24,_ZSt22__uninitialized_copy_aIN9__gnu_cxx17__normal_iteratorIPKN15vectorfontstorm7segmentI10TestVertexEESt6vectorIS5_SaIS5_EEEEPS5_S5_ET0_T_SE_SD_RSaIT1_E
FNDA:68,_ZSt22__uninitialized_copy_aIN9__gnu_cxx17__normal_iteratorIPKSt10shared_ptrIN3p2t5PointEESt6vectorIS5_SaIS5_EEEEPS5_S5_ET0_T_SE_SD_RSaIT1_E
FNDA:144,_ZSt22__uninitialized_copy_aIN9__gnu_cxx17__normal_iteratorIPKjSt6vectorIjSaIjEEEEPjjET0_T_SA_S9_RSaIT1_E
FNDA:0,_ZSt22__uninitialized_copy_aIP10TestVertexS1_S0_ET0_T_S3_S2_RSaIT1_E
FNDA:90,_ZSt22__uninitialized_copy_aIPKN15vectorfontstorm7contourI10TestVertexEEPS3_S3_ET0_T_S8_S7_RSaIT1_E
FNDA:1774,_ZSt22__uninitialized_copy_aIPKN15vectorfontstorm7segmentI10TestVertexEEPS3_S3_ET0_T_S8_S7_RSaIT1_E
FNDA:0,_ZSt22__uninitialized_copy_aIPN15vectorfontstorm5pointES2_S1_ET0_T_S4_S3_RSaIT1_E
FNDA:0,_ZSt22__uninitialized_copy_aIPjS0_jET0_T_S2_S1_RSaIT1_E
FNDA:35,_ZSt22__uninitialized_copy_aISt13move_iteratorIP10TestVertexES2_S1_ET0_T_S5_S4_RSaIT1_E
FNDA:35,_ZSt22__uninitialized_copy_aISt13move_iteratorIPjES1_jET0_T_S4_S3_RSaIT1_E
FNDA:35,_ZSt22__uninitialized_move_aIP10TestVertexS1_SaIS0_EET0_T_S4_S3_RT1_
FNDA:35,_ZSt22__uninitialized_move_aIPjS0_SaIjEET0_T_S3_S2_RT1_
FNDA:0,_ZSt34__uninitialized_move_if_noexcept_aIP10TestVertexS1_SaIS0_EET0_T_S4_S3_RT1_
FNDA:90,_ZSt34__uninitialized_move_if_noexcept_aIPN15vectorfontstorm7contourI10TestVertexEES4_SaIS3_EET0_T_S7_S6_RT1_
FNDA:1774,_ZSt34__uninitialized_move_if_noexcept_aIPN15vectorfontstorm7segmentI10TestVertexEES4_SaIS3_EET0_T_S7_S6_RT1_
FNDA:0,_ZSt34__uninitialized_move_if_noexcept_aIPjS0_SaIjEET0_T_S3_S2_RT1_
FNDA:17,_ZNSt27__uninitialized_default_n_1ILb1EE18__uninit_default_nIPhmEET_S3_T0_
FNDA:17,_ZSt25__uninitialized_default_nIPhmET_S1_T0_
FNDA:17,_ZSt27__uninitialized_default_n_aIPhmhET_S1_T0_RSaIT1_E
FNF:75
FNH:62
DA:113,3246
DA:116,3246
DA:119,9060
DA:120,5814
DA:121,3246
DA:123,0
DA:125,0
DA:126,0
DA:135,3246
DA:137,3246
DA:145,179
DA:147,179
DA:163,3425
DA:174,3425
DA:181,3425
DA:185,3425
DA:366,3425
DA:373,3425
DA:381,70
DA:384,70
DA:386,70
DA:393,1864
DA:399,1864
DA:400,1864
DA:660,17
DA:662,17
DA:665,17
DA:666,17
DA:667,17
DA:668,17
DA:670,17
DA:696,17
DA:707,17
DA:712,17
DA:777,17
DA:779,17
DA:1069,13384
DA:1077,13384
DA:1078,13384
DA:1079,13384
DA:1091,7601
DA:1103,7601
DA:1104,20985
DA:1105,13384
DA:1107,7601
DA:1114,5975
DA:1118,5975
DA:1119,5975
DA:1131,1771
DA:1133,5975
DA:1141,13576
DA:1147,13576
DA:1149,13576
LF:53
LH:50
end_of_record
TN:
SF:/usr/include/c++/13/bits/stl_vector.h
FN:105,108,_ZNSt12_Vector_baseIhSaIhEE17_Vector_impl_dataC2EOS2_
FN:1078,1080,_ZNKSt6vectorI10TestVertexSaIS0_EE8capacityEv
FN:1078,1080,_ZNKSt6vectorIN15vectorfontstorm5pointESaIS1_EE8capacityEv
FN:1078,1080,_ZNKSt6vectorIjSaIjEE8capacityEv
FN:1088,1089,_ZNKSt6vectorI10TestVertexSaIS0_EE5emptyEv
FN:1088,1089,_ZNKSt6vectorIN15vectorfontstorm7contourI10TestVertexEESaIS3_EE5emptyEv
FN:1088,1089,_ZNKSt6vectorIPN3p2t8TriangleESaIS2_EE5emptyEv
FN:1088,1089,_ZNKSt6vectorIhSaIhEE5emptyEv
FN:1088,1089,_ZNKSt6vectorIjSaIjEE5emptyEv
FN:1126,1130,_ZNSt6vectorI10TestVertexSaIS0_EEixEm
FN:1126,1130,_ZNSt6vectorIN15vectorfontstorm5pointESaIS1_EEixEm
FN:1126,1130,_ZNSt6vectorIN15vectorfontstorm7segmentI10TestVertexEESaIS3_EEixEm
FN:1126,1130,_ZNSt6vectorIPN3p2t4EdgeESaIS2_EEixEm
FN:1126,1130,_ZNSt6vectorIPN3p2t4NodeESaIS2_EEixEm
FN:1126,1130,_ZNSt6vectorISt10shared_ptrIN3p2t5PointEESaIS3_EEixEm
FN:1126,1130,_ZNSt6vectorIjSaIjEEixEm
FN:113,118,_ZNSt12_Vector_baseIhSaIhEE17_Vector_impl_data12_M_copy_dataERKS2_
FN:1145,1149,_ZNKSt6vectorISt10shared_ptrIN3p2t5PointEESaIS3_EEixEm
FN:1209,1213,_ZNSt6vectorIN15vectorfontstorm5pointESaIS1_EE5frontEv
FN:1209,1213,_ZNSt6vectorIN15vectorfontstorm7contourI10TestVertexEESaIS3_EE5frontEv
FN:1209,1213,_ZNSt6vectorIN15vectorfontstorm7segmentI10TestVertexEESaIS3_EE5frontEv
FN:122,130,_ZNSt12_Vector_baseIhSaIhEE17_Vector_impl_data12_M_swap_dataERS2_
FN:1221,1225,_ZNKSt6vectorIN15vectorfontstorm5pointESaIS1_EE5frontEv
FN:1221,1225,_ZNKSt6vectorIN15vectorfontstorm7segmentI10TestVertexEESaIS3_EE5frontEv
FN:1233,1237,_ZNSt6vectorI10TestVertexSaIS0_EE4backEv
FN:1233,1237,_ZNSt6vectorIN15vectorfontstorm5pointESaIS1_EE4backEv
FN:1233,1237,_ZNSt6vectorIN15vectorfontstorm7contourI10TestVertexEESaIS3_EE4backEv
FN:1233,1237,_ZNSt6vectorIN15vectorfontstorm7segmentI10TestVertexEESaIS3_EE4backEv
FN:1233,1237,_ZNSt6vectorIPN3p2t4EdgeESaIS2_EE4backEv
FN:1233,1237,_ZNSt6vectorIPN3p2t4NodeESaIS2_EE4backEv
FN:1233,1237,_ZNSt6vectorIPN3p2t8TriangleESaIS2_EE4backEv
FN:1233,1237,_ZNSt6vectorISt10shared_ptrIN3p2t5PointEESaIS3_EE4backEv
FN:1233,1237,_ZNSt6vectorIjSaIjEE4backEv
FN:1245,1249,_ZNKSt6vectorIN15vectorfontstorm5pointESaIS1_EE4backEv
FN:1260,1261,_ZNSt6vectorIhSaIhEE4dataEv
FN:1298,1299,_ZNSt6vectorIjSaIjEE9push_backEOj
FN:1322,1328,_ZNSt6vectorIN15vectorfontstorm5pointESaIS1_EE8pop_backEv
FN:1322,1328,_ZNSt6vectorIPN3p2t8TriangleESaIS2_EE8pop_backEv
FN:1322,1328,_ZNSt6vectorISt10shared_ptrIN3p2t5PointEESaIS3_EE8pop_backEv
FN:1346,1347,_ZNSt6vectorIN15vectorfontstorm5pointESaIS1_EE7emplaceIJ7vector2IfENS1_5typesEEEEN9__gnu_cxx17__normal_iteratorIPS1_S3_EENS9_IPKS1_S3_EEDpOT_
FN:137,143,_ZNSt12_Vector_baseI10TestVertexSaIS0_EE12_Vector_implC2Ev
FN:137,143,_ZNSt12_Vector_baseIN15vectorfontstorm5pointESaIS1_EE12_Vector_implC2Ev
FN:137,143,_ZNSt12_Vector_baseIN15vectorfontstorm7contourI10TestVertexEESaIS3_EE12_Vector_implC2Ev
FN:137,143,_ZNSt12_Vector_baseIN15vectorfontstorm7segmentI10TestVertexEESaIS3_EE12_Vector_implC2Ev
FN:137,143,_ZNSt12_Vector_baseIPN3p2t4EdgeESaIS2_EE12_Vector_implC2Ev
FN:137,143,_ZNSt12_Vector_baseIPN3p2t4NodeESaIS2_EE12_Vector_implC2Ev
FN:137,143,_ZNSt12_Vector_baseIPN3p2t8TriangleESaIS2_EE12_Vector_implC2Ev
FN:137,143,_ZNSt12_Vector_baseISt10shared_ptrIN3p2t5PointEESaIS3_EE12_Vector_implC2Ev
FN:137,143,_ZNSt12_Vector_baseIhSaIhEE12_Vector_implC2Ev
FN:137,143,_ZNSt12_Vector_baseIjSaIjEE12_Vector_implC2Ev
FN:146,148,_ZNSt12_Vector_baseI10TestVertexSaIS0_EE12_Vector_implC2ERKS1_
FN:146,148,_ZNSt12_Vector_baseIN15vectorfontstorm5pointESaIS1_EE12_Vector_implC2ERKS2_
FN:146,148,_ZNSt12_Vector_baseIN15vectorfontstorm7contourI10TestVertexEESaIS3_EE12_Vector_implC2ERKS4_
FN:146,148,_ZNSt12_Vector_baseIN15vectorfontstorm7segmentI10TestVertexEESaIS3_EE12_Vector_implC2ERKS4_
FN:146,148,_ZNSt12_Vector_baseISt10shared_ptrIN3p2t5PointEESaIS3_EE12_Vector_implC2ERKS4_
FN:146,148,_ZNSt12_Vector_baseIhSaIhEE12_Vector_implC2ERKS0_
FN:146,148,_ZNSt12_Vector_baseIjSaIjEE12_Vector_implC2ERKS0_
FN:1482,1489,_ZNSt6vectorI10TestVertexSaIS0_EE6insertIN9__gnu_cxx17__normal_iteratorIPKS0_S2_EEvEENS5_IPS0_S2_EES8_T_SB_
FN:1482,1489,_ZNSt6vectorIjSaIjEE6insertIN9__gnu_cxx17__normal_iteratorIPKjS1_EEvEENS4_IPjS1_EES7_T_SA_
FN:154,156,_ZNSt12_Vector_baseIhSaIhEE12_Vector_implC2EOS2_
FN:1605,1606,_ZNSt6vectorI10TestVertexSaIS0_EE5clearEv
FN:1605,1606,_ZNSt6vectorIN15vectorfontstorm5pointESaIS1_EE5clearEv
FN:1605,1606,_ZNSt6vectorIjSaIjEE5clearEv
FN:1616,1631,_ZNSt6vectorI10TestVertexSaIS0_EE20_M_allocate_and_copyIN9__gnu_cxx17__normal_iteratorIPKS0_S2_EEEEPS0_mT_SA_
FN:1616,1631,_ZNSt6vectorIN15vectorfontstorm5pointESaIS1_EE20_M_allocate_and_copyIN9__gnu_cxx17__normal_iteratorIPKS1_S3_EEEEPS1_mT_SB_
FN:1616,1631,_ZNSt6vectorIjSaIjEE20_M_allocate_and_copyIN9__gnu_cxx17__normal_iteratorIPKjS1_EEEEPjmT_S9_
FN:1715,1720,_ZNSt6vectorIhSaIhEE21_M_default_initializeEm
FN:1833,1837,_ZNSt6vectorIN15vectorfontstorm5pointESaIS1_EE16_Temporary_valueC2IJ7vector2IfENS1_5typesEEEEPS3_DpOT_
FN:1840,1841,_ZNSt6vectorIN15vectorfontstorm5pointESaIS1_EE16_Temporary_valueD2Ev
FN:1844,1844,_ZNSt6vectorIN15vectorfontstorm5pointESaIS1_EE16_Temporary_value6_M_valEv
FN:1848,1848,_ZNSt6vectorIN15vectorfontstorm5pointESaIS1_EE16_Temporary_value6_M_ptrEv
FN:1852,1852,_ZNSt6vectorIN15vectorfontstorm5pointESaIS1_EE16_Temporary_value8_StorageC2Ev
FN:1853,1853,_ZNSt6vectorIN15vectorfontstorm5pointESaIS1_EE16_Temporary_value8_StorageD2Ev
FN:1896,1903,_ZNKSt6vectorI10TestVertexSaIS0_EE12_M_check_lenEmPKc
FN:1896,1903,_ZNKSt6vectorIN15vectorfontstorm5pointESaIS1_EE12_M_check_lenEmPKc
FN:1896,1903,_ZNKSt6vectorIN15vectorfontstorm7contourI10TestVertexEESaIS3_EE12_M_check_lenEmPKc
FN:1896,1903,_ZNKSt6vectorIN15vectorfontstorm7segmentI10TestVertexEESaIS3_EE12_M_check_lenEmPKc
FN:1896,1903,_ZNKSt6vectorIPN3p2t4EdgeESaIS2_EE12_M_check_lenEmPKc
FN:1896,1903,_ZNKSt6vectorIPN3p2t4NodeESaIS2_EE12_M_check_lenEmPKc
FN:1896,1903,_ZNKSt6vectorIPN3p2t8TriangleESaIS2_EE12_M_check_lenEmPKc
FN:1896,1903,_ZNKSt6vectorISt10shared_ptrIN3p2t5PointEESaIS3_EE12_M_check_lenEmPKc
FN:1896,1903,_ZNKSt6vectorIjSaIjEE12_M_check_lenEmPKc
FN:1907,1913,_ZNSt6vectorIhSaIhEE17_S_check_init_lenEmRKS0_
FN:1916,1925,_ZNSt6vectorI10TestVertexSaIS0_EE11_S_max_sizeERKS1_
FN:1916,1925,_ZNSt6vectorIN15vectorfontstorm5pointESaIS1_EE11_S_max_sizeERKS2_
FN:1916,1925,_ZNSt6vectorIN15vectorfontstorm7contourI10TestVertexEESaIS3_EE11_S_max_sizeERKS4_
FN:1916,1925,_ZNSt6vectorIN15vectorfontstorm7segmentI10TestVertexEESaIS3_EE11_S_max_sizeERKS4_
FN:1916,1925,_ZNSt6vectorIPN3p2t4EdgeESaIS2_EE11_S_max_sizeERKS3_
FN:1916,1925,_ZNSt6vectorIPN3p2t4NodeESaIS2_EE11_S_max_sizeERKS3_
FN:1916,1925,_ZNSt6vectorIPN3p2t8TriangleESaIS2_EE11_S_max_sizeERKS3_
FN:1916,1925,_ZNSt6vectorISt10shared_ptrIN3p2t5PointEESaIS3_EE11_S_max_sizeERKS4_
FN:1916,1925,_ZNSt6vectorIhSaIhEE11_S_max_sizeERKS0_
FN:1916,1925,_ZNSt6vectorIjSaIjEE11_S_max_sizeERKS0_
FN:1933,1942,_ZNSt6vectorI10TestVertexSaIS0_EE15_M_erase_at_endEPS0_
FN:1933,1942,_ZNSt6vectorIN15vectorfontstorm5pointESaIS1_EE15_M_erase_at_endEPS1_
FN:1933,1942,_ZNSt6vectorIjSaIjEE15_M_erase_at_endEPj
FN:1959,1965,_ZNSt6vectorIhSaIhEE14_M_move_assignEOS1_St17integral_constantIbLb1EE
FN:1990,1991,_ZNKSt6vectorIhSaIhEE11_M_data_ptrIhEEPT_S4_
FN:301,302,_ZNSt12_Vector_baseI10TestVertexSaIS0_EE19_M_get_Tp_allocatorEv
FN:301,302,_ZNSt12_Vector_baseIN15vectorfontstorm5pointESaIS1_EE19_M_get_Tp_allocatorEv
FN:301,302,_ZNSt12_Vector_baseIN15vectorfontstorm7contourI10TestVertexEESaIS3_EE19_M_get_Tp_allocatorEv
FN:301,302,_ZNSt12_Vector_baseIN15vectorfontstorm7segmentI10TestVertexEESaIS3_EE19_M_get_Tp_allocatorEv
FN:301,302,_ZNSt12_Vector_baseIPN3p2t4EdgeESaIS2_EE19_M_get_Tp_allocatorEv
FN:301,302,_ZNSt12_Vector_baseIPN3p2t4NodeESaIS2_EE19_M_get_Tp_allocatorEv
FN:301,302,_ZNSt12_Vector_baseIPN3p2t8TriangleESaIS2_EE19_M_get_Tp_allocatorEv
FN:301,302,_ZNSt12_Vector_baseISt10shared_ptrIN3p2t5PointEESaIS3_EE19_M_get_Tp_allocatorEv
FN:301,302,_ZNSt12_Vector_baseIhSaIhEE19_M_get_Tp_allocatorEv
FN:301,302,_ZNSt12_Vector_baseIjSaIjEE19_M_get_Tp_allocatorEv
FN:306,307,_ZNKSt12_Vector_baseI10TestVertexSaIS0_EE19_M_get_Tp_allocatorEv
FN:306,307,_ZNKSt12_Vector_baseIN15vectorfontstorm5pointESaIS1_EE19_M_get_Tp_allocatorEv
FN:306,307,_ZNKSt12_Vector_baseIN15vectorfontstorm7contourI10TestVertexEESaIS3_EE19_M_get_Tp_allocatorEv
FN:306,307,_ZNKSt12_Vector_baseIN15vectorfontstorm7segmentI10TestVertexEESaIS3_EE19_M_get_Tp_allocatorEv
FN:306,307,_ZNKSt12_Vector_baseIPN3p2t4EdgeESaIS2_EE19_M_get_Tp_allocatorEv
FN:306,307,_ZNKSt12_Vector_baseIPN3p2t4NodeESaIS2_EE19_M_get_Tp_allocatorEv
FN:306,307,_ZNKSt12_Vector_baseIPN3p2t8TriangleESaIS2_EE19_M_get_Tp_allocatorEv
FN:306,307,_ZNKSt12_Vector_baseISt10shared_ptrIN3p2t5PointEESaIS3_EE19_M_get_Tp_allocatorEv
FN:306,307,_ZNKSt12_Vector_baseIhSaIhEE19_M_get_Tp_allocatorEv
FN:306,307,_ZNKSt12_Vector_baseIjSaIjEE19_M_get_Tp_allocatorEv
FN:311,312,_ZNKSt12_Vector_baseIhSaIhEE13get_allocatorEv
FN:315,315,_ZNSt12_Vector_baseI10TestVertexSaIS0_EEC2Ev
FN:315,315,_ZNSt12_Vector_baseIN15vectorfontstorm5pointESaIS1_EEC2Ev
FN:315,315,_ZNSt12_Vector_baseIN15vectorfontstorm7contourI10TestVertexEESaIS3_EEC2Ev
FN:315,315,_ZNSt12_Vector_baseIN15vectorfontstorm7segmentI10TestVertexEESaIS3_EEC2Ev
FN:315,315,_ZNSt12_Vector_baseIPN3p2t4EdgeESaIS2_EEC2Ev
FN:315,315,_ZNSt12_Vector_baseIPN3p2t4NodeESaIS2_EEC2Ev
FN:315,315,_ZNSt12_Vector_baseIPN3p2t8TriangleESaIS2_EEC2Ev
FN:315,315,_ZNSt12_Vector_baseISt10shared_ptrIN3p2t5PointEESaIS3_EEC2Ev
FN:315,315,_ZNSt12_Vector_baseIhSaIhEEC2Ev
FN:315,315,_ZNSt12_Vector_baseIjSaIjEEC2Ev
FN:321,322,_ZNSt12_Vector_baseIhSaIhEEC2ERKS0_
FN:333,335,_ZNSt12_Vector_baseI10TestVertexSaIS0_EEC2EmRKS1_
FN:333,335,_ZNSt12_Vector_baseIN15vectorfontstorm5pointESaIS1_EEC2EmRKS2_
FN:333,335,_ZNSt12_Vector_baseIN15vectorfontstorm7contourI10TestVertexEESaIS3_EEC2EmRKS4_
FN:333,335,_ZNSt12_Vector_baseIN15vectorfontstorm7segmentI10TestVertexEESaIS3_EEC2EmRKS4_
FN:333,335,_ZNSt12_Vector_baseISt10shared_ptrIN3p2t5PointEESaIS3_EEC2EmRKS4_
FN:333,335,_ZNSt12_Vector_baseIhSaIhEEC2EmRKS0_
FN:333,335,_ZNSt12_Vector_baseIjSaIjEEC2EmRKS0_
FN:338,338,_ZNSt12_Vector_baseIhSaIhEEC2EOS1_
FN:367,371,_ZNSt12_Vector_baseI10TestVertexSaIS0_EED2Ev
FN:367,371,_ZNSt12_Vector_baseIN15vectorfontstorm5pointESaIS1_EED2Ev
FN:367,371,_ZNSt12_Vector_baseIN15vectorfontstorm7contourI10TestVertexEESaIS3_EED2Ev
FN:367,371,_ZNSt12_Vector_baseIN15vectorfontstorm7segmentI10TestVertexEESaIS3_EED2Ev
FN:367,371,_ZNSt12_Vector_baseIPN3p2t4EdgeESaIS2_EED2Ev
FN:367,371,_ZNSt12_Vector_baseIPN3p2t4NodeESaIS2_EED2Ev
FN:367,371,_ZNSt12_Vector_baseIPN3p2t8TriangleESaIS2_EED2Ev
FN:367,371,_ZNSt12_Vector_baseISt10shared_ptrIN3p2t5PointEESaIS3_EED2Ev
FN:367,371,_ZNSt12_Vector_baseIhSaIhEED2Ev
FN:367,371,_ZNSt12_Vector_baseIjSaIjEED2Ev
FN:378,382,_ZNSt12_Vector_baseI10TestVertexSaIS0_EE11_M_allocateEm
FN:378,382,_ZNSt12_Vector_baseIN15vectorfontstorm5pointESaIS1_EE11_M_allocateEm
FN:378,382,_ZNSt12_Vector_baseIN15vectorfontstorm7contourI10TestVertexEESaIS3_EE11_M_allocateEm
FN:378,382,_ZNSt12_Vector_baseIN15vectorfontstorm7segmentI10TestVertexEESaIS3_EE11_M_allocateEm
FN:378,382,_ZNSt12_Vector_baseIPN3p2t4EdgeESaIS2_EE11_M_allocateEm
FN:378,382,_ZNSt12_Vector_baseIPN3p2t4NodeESaIS2_EE11_M_allocateEm
FN:378,382,_ZNSt12_Vector_baseIPN3p2t8TriangleESaIS2_EE11_M_allocateEm
FN:378,382,_ZNSt12_Vector_baseISt10shared_ptrIN3p2t5PointEESaIS3_EE11_M_allocateEm
FN:378,382,_ZNSt12_Vector_baseIhSaIhEE11_M_allocateEm
FN:378,382,_ZNSt12_Vector_baseIjSaIjEE11_M_allocateEm
FN:386,391,_ZNSt12_Vector_baseI10TestVertexSaIS0_EE13_M_deallocateEPS0_m
FN:386,391,_ZNSt12_Vector_baseIN15vectorfontstorm5pointESaIS1_EE13_M_deallocateEPS1_m
FN:386,391,_ZNSt12_Vector_baseIN15vectorfontstorm7contourI10TestVertexEESaIS3_EE13_M_deallocateEPS3_m
FN:386,391,_ZNSt12_Vector_baseIN15vectorfontstorm7segmentI10TestVertexEESaIS3_EE13_M_deallocateEPS3_m
FN:386,391,_ZNSt12_Vector_baseIPN3p2t4EdgeESaIS2_EE13_M_deallocateEPS2_m
FN:386,391,_ZNSt12_Vector_baseIPN3p2t4NodeESaIS2_EE13_M_deallocateEPS2_m
FN:386,391,_ZNSt12_Vector_baseIPN3p2t8TriangleESaIS2_EE13_M_deallocateEPS2_m
FN:386,391,_ZNSt12_Vector_baseISt10shared_ptrIN3p2t5PointEESaIS3_EE13_M_deallocateEPS3_m
FN:386,391,_ZNSt12_Vector_baseIhSaIhEE13_M_deallocateEPhm
FN:386,391,_ZNSt12_Vector_baseIjSaIjEE13_M_deallocateEPjm
FN:396,401,_ZNSt12_Vector_baseI10TestVertexSaIS0_EE17_M_create_storageEm
FN:396,401,_ZNSt12_Vector_baseIN15vectorfontstorm5pointESaIS1_EE17_M_create_storageEm
FN:396,401,_ZNSt12_Vector_baseIN15vectorfontstorm7contourI10TestVertexEESaIS3_EE17_M_create_storageEm
FN:396,401,_ZNSt12_Vector_baseIN15vectorfontstorm7segmentI10TestVertexEESaIS3_EE17_M_create_storageEm
FN:396,401,_ZNSt12_Vector_baseISt10shared_ptrIN3p2t5PointEESaIS3_EE17_M_create_storageEm
FN:396,401,_ZNSt12_Vector_baseIhSaIhEE17_M_create_storageEm
FN:396,401,_ZNSt12_Vector_baseIjSaIjEE17_M_create_storageEm
FN:504,514,_ZNSt6vectorI10TestVertexSaIS0_EE11_S_relocateEPS0_S3_S3_RS1_
FN:504,514,_ZNSt6vectorIN15vectorfontstorm5pointESaIS1_EE11_S_relocateEPS1_S4_S4_RS2_
FN:504,514,_ZNSt6vectorIPN3p2t4EdgeESaIS2_EE11_S_relocateEPS2_S5_S5_RS3_
FN:504,514,_ZNSt6vectorIPN3p2t4NodeESaIS2_EE11_S_relocateEPS2_S5_S5_RS3_
FN:504,514,_ZNSt6vectorIPN3p2t8TriangleESaIS2_EE11_S_relocateEPS2_S5_S5_RS3_
FN:504,514,_ZNSt6vectorISt10shared_ptrIN3p2t5PointEESaIS3_EE11_S_relocateEPS3_S6_S6_RS4_
FN:504,514,_ZNSt6vectorIjSaIjEE11_S_relocateEPjS2_S2_RS0_
FN:531,531,_ZNSt6vectorI10TestVertexSaIS0_EEC2Ev
FN:531,531,_ZNSt6vectorIN15vectorfontstorm5pointESaIS1_EEC2Ev
FN:531,531,_ZNSt6vectorIN15vectorfontstorm7contourI10TestVertexEESaIS3_EEC2Ev
FN:531,531,_ZNSt6vectorIN15vectorfontstorm7segmentI10TestVertexEESaIS3_EEC2Ev
FN:531,531,_ZNSt6vectorIPN3p2t4EdgeESaIS2_EEC2Ev
FN:531,531,_ZNSt6vectorIPN3p2t4NodeESaIS2_EEC2Ev
FN:531,531,_ZNSt6vectorIPN3p2t8TriangleESaIS2_EEC2Ev
FN:531,531,_ZNSt6vectorISt10shared_ptrIN3p2t5PointEESaIS3_EEC2Ev
FN:531,531,_ZNSt6vectorIhSaIhEEC2Ev
FN:531,531,_ZNSt6vectorIjSaIjEEC2Ev
FN:542,543,_ZNSt6vectorIhSaIhEEC2ERKS0_
FN:556,558,_ZNSt6vectorIhSaIhEEC2EmRKS0_
FN:601,609,_ZNSt6vectorI10TestVertexSaIS0_EEC2ERKS2_
FN:601,609,_ZNSt6vectorIN15vectorfontstorm5pointESaIS1_EEC2ERKS3_
FN:601,609,_ZNSt6vectorIN15vectorfontstorm7contourI10TestVertexEESaIS3_EEC2ERKS5_
FN:601,609,_ZNSt6vectorIN15vectorfontstorm7segmentI10TestVertexEESaIS3_EEC2ERKS5_
FN:601,609,_ZNSt6vectorISt10shared_ptrIN3p2t5PointEESaIS3_EEC2ERKS5_
FN:601,609,_ZNSt6vectorIjSaIjEEC2ERKS1_
FN:620,620,_ZNSt6vectorIhSaIhEEC2EOS1_
FN:733,738,_ZNSt6vectorI10TestVertexSaIS0_EED2Ev
FN:733,738,_ZNSt6vectorIN15vectorfontstorm5pointESaIS1_EED2Ev
FN:733,738,_ZNSt6vectorIN15vectorfontstorm7contourI10TestVertexEESaIS3_EED2Ev
FN:733,738,_ZNSt6vectorIN15vectorfontstorm7segmentI10TestVertexEESaIS3_EED2Ev
FN:733,738,_ZNSt6vectorIPN3p2t4EdgeESaIS2_EED2Ev
FN:733,738,_ZNSt6vectorIPN3p2t4NodeESaIS2_EED2Ev
FN:733,738,_ZNSt6vectorIPN3p2t8TriangleESaIS2_EED2Ev
FN:733,738,_ZNSt6vectorISt10shared_ptrIN3p2t5PointEESaIS3_EED2Ev
FN:733,738,_ZNSt6vectorIhSaIhEED2Ev
FN:733,738,_ZNSt6vectorIjSaIjEED2Ev
FN:766,773,_ZNSt6vectorIhSaIhEEaSEOS1_
FN:873,874,_ZNSt6vectorI10TestVertexSaIS0_EE5beginEv
FN:873,874,_ZNSt6vectorIN15vectorfontstorm5pointESaIS1_EE5beginEv
FN:873,874,_ZNSt6vectorIN15vectorfontstorm7contourI10TestVertexEESaIS3_EE5beginEv
FN:873,874,_ZNSt6vectorIN15vectorfontstorm7segmentI10TestVertexEESaIS3_EE5beginEv
FN:873,874,_ZNSt6vectorIPN3p2t4EdgeESaIS2_EE5beginEv
FN:873,874,_ZNSt6vectorIPN3p2t4NodeESaIS2_EE5beginEv
FN:873,874,_ZNSt6vectorIPN3p2t8TriangleESaIS2_EE5beginEv
FN:873,874,_ZNSt6vectorISt10shared_ptrIN3p2t5PointEESaIS3_EE5beginEv
FN:873,874,_ZNSt6vectorIjSaIjEE5beginEv
FN:883,884,_ZNKSt6vectorI10TestVertexSaIS0_EE5beginEv
FN:883,884,_ZNKSt6vectorIN15vectorfontstorm5pointESaIS1_EE5beginEv
FN:883,884,_ZNKSt6vectorIN15vectorfontstorm7contourI10TestVertexEESaIS3_EE5beginEv
FN:883,884,_ZNKSt6vectorIN15vectorfontstorm7segmentI10TestVertexEESaIS3_EE5beginEv
FN:883,884,_ZNKSt6vectorIPN3p2t8TriangleESaIS2_EE5beginEv
FN:883,884,_ZNKSt6vectorISt10shared_ptrIN3p2t5PointEESaIS3_EE5beginEv
FN:883,884,_ZNKSt6vectorIhSaIhEE5beginEv
FN:883,884,_ZNKSt6vectorIjSaIjEE5beginEv
FN:893,894,_ZNSt6vectorI10TestVertexSaIS0_EE3endEv
FN:893,894,_ZNSt6vectorIN15vectorfontstorm5pointESaIS1_EE3endEv
FN:893,894,_ZNSt6vectorIN15vectorfontstorm7contourI10TestVertexEESaIS3_EE3endEv
FN:893,894,_ZNSt6vectorIN15vectorfontstorm7segmentI10TestVertexEESaIS3_EE3endEv
FN:893,894,_ZNSt6vectorIPN3p2t4EdgeESaIS2_EE3endEv
FN:893,894,_ZNSt6vectorIPN3p2t4NodeESaIS2_EE3endEv
FN:893,894,_ZNSt6vectorIPN3p2t8TriangleESaIS2_EE3endEv
FN:893,894,_ZNSt6vectorISt10shared_ptrIN3p2t5PointEESaIS3_EE3endEv
FN:893,894,_ZNSt6vectorIjSaIjEE3endEv
FN:903,904,_ZNKSt6vectorI10TestVertexSaIS0_EE3endEv
FN:903,904,_ZNKSt6vectorIN15vectorfontstorm5pointESaIS1_EE3endEv
FN:903,904,_ZNKSt6vectorIN15vectorfontstorm7contourI10TestVertexEESaIS3_EE3endEv
FN:903,904,_ZNKSt6vectorIN15vectorfontstorm7segmentI10TestVertexEESaIS3_EE3endEv
FN:903,904,_ZNKSt6vectorIPN3p2t8TriangleESaIS2_EE3endEv
FN:903,904,_ZNKSt6vectorISt10shared_ptrIN3p2t5PointEESaIS3_EE3endEv
FN:903,904,_ZNKSt6vectorIhSaIhEE3endEv
FN:903,904,_ZNKSt6vectorIjSaIjEE3endEv
FN:954,955,_ZNKSt6vectorI10TestVertexSaIS0_EE6cbeginEv
FN:954,955,_ZNKSt6vectorIN15vectorfontstorm5pointESaIS1_EE6cbeginEv
FN:954,955,_ZNKSt6vectorIjSaIjEE6cbeginEv
FN:964,965,_ZNKSt6vectorIN15vectorfontstorm5pointESaIS1_EE4cendEv
FN:99,101,_ZNSt12_Vector_baseI10TestVertexSaIS0_EE17_Vector_impl_dataC2Ev
FN:99,101,_ZNSt12_Vector_baseIN15vectorfontstorm5pointESaIS1_EE17_Vector_impl_dataC2Ev
FN:99,101,_ZNSt12_Vector_baseIN15vectorfontstorm7contourI10TestVertexEESaIS3_EE17_Vector_impl_dataC2Ev
FN:99,101,_ZNSt12_Vector_baseIN15vectorfontstorm7segmentI10TestVertexEESaIS3_EE17_Vector_impl_dataC2Ev
FN:99,101,_ZNSt12_Vector_baseIPN3p2t4EdgeESaIS2_EE17_Vector_impl_dataC2Ev
FN:99,101,_ZNSt12_Vector_baseIPN3p2t4NodeESaIS2_EE17_Vector_impl_dataC2Ev
FN:99,101,_ZNSt12_Vector_baseIPN3p2t8TriangleESaIS2_EE17_Vector_impl_dataC2Ev
FN:99,101,_ZNSt12_Vector_baseISt10shared_ptrIN3p2t5PointEESaIS3_EE17_Vector_impl_dataC2Ev
FN:99,101,_ZNSt12_Vector_baseIhSaIhEE17_Vector_impl_dataC2Ev
FN:99,101,_ZNSt12_Vector_baseIjSaIjEE17_Vector_impl_dataC2Ev
FN:992,993,_ZNKSt6vectorI10TestVertexSaIS0_EE4sizeEv
FN:992,993,_ZNKSt6vectorIN15vectorfontstorm5pointESaIS1_EE4sizeEv
FN:992,993,_ZNKSt6vectorIN15vectorfontstorm7contourI10TestVertexEESaIS3_EE4sizeEv
FN:992,993,_ZNKSt6vectorIN15vectorfontstorm7segmentI10TestVertexEESaIS3_EE4sizeEv
FN:992,993,_ZNKSt6vectorIPN3p2t4EdgeESaIS2_EE4sizeEv
FN:992,993,_ZNKSt6vectorIPN3p2t4NodeESaIS2_EE4sizeEv
FN:992,993,_ZNKSt6vectorIPN3p2t8TriangleESaIS2_EE4sizeEv
FN:992,993,_ZNKSt6vectorISt10shared_ptrIN3p2t5PointEESaIS3_EE4sizeEv
FN:992,993,_ZNKSt6vectorIhSaIhEE4sizeEv
FN:992,993,_ZNKSt6vectorIjSaIjEE4sizeEv
FN:998,999,_ZNKSt6vectorI10TestVertexSaIS0_EE8max_sizeEv
FN:998,999,_ZNKSt6vectorIN15vectorfontstorm5pointESaIS1_EE8max_sizeEv
FN:998,999,_ZNKSt6vectorIN15vectorfontstorm7contourI10TestVertexEESaIS3_EE8max_sizeEv
FN:998,999,_ZNKSt6vectorIN15vectorfontstorm7segmentI10TestVertexEESaIS3_EE8max_sizeEv
FN:998,999,_ZNKSt6vectorIPN3p2t4EdgeESaIS2_EE8max_sizeEv
FN:998,999,_ZNKSt6vectorIPN3p2t4NodeESaIS2_EE8max_sizeEv
FN:998,999,_ZNKSt6vectorIPN3p2t8TriangleESaIS2_EE8max_sizeEv
FN:998,999,_ZNKSt6vectorISt10shared_ptrIN3p2t5PointEESaIS3_EE8max_sizeEv
FN:998,999,_ZNKSt6vectorIjSaIjEE8max_sizeEv
FNDA:17,_ZNSt12_Vector_baseIhSaIhEE17_Vector_impl_dataC2EOS2_
FNDA:36,_ZNKSt6vectorI10TestVertexSaIS0_EE8capacityEv
FNDA:276,_ZNKSt6vectorIN15vectorfontstorm5pointESaIS1_EE8capacityEv
FNDA:36,_ZNKSt6vectorIjSaIjEE8capacityEv
FNDA:90,_ZNKSt6vectorI10TestVertexSaIS0_EE5emptyEv
FNDA:28,_ZNKSt6vectorIN15vectorfontstorm7contourI10TestVertexEESaIS3_EE5emptyEv
FNDA:1820,_ZNKSt6vectorIPN3p2t8TriangleESaIS2_EE5emptyEv
FNDA:17,_ZNKSt6vectorIhSaIhEE5emptyEv
FNDA:9,_ZNKSt6vectorIjSaIjEE5emptyEv
FNDA:627,_ZNSt6vectorI10TestVertexSaIS0_EEixEm
FNDA:445,_ZNSt6vectorIN15vectorfontstorm5pointESaIS1_EEixEm
FNDA:168,_ZNSt6vectorIN15vectorfontstorm7segmentI10TestVertexEESaIS3_EEixEm
FNDA:980,_ZNSt6vectorIPN3p2t4EdgeESaIS2_EEixEm
FNDA:912,_ZNSt6vectorIPN3p2t4NodeESaIS2_EEixEm
FNDA:5126,_ZNSt6vectorISt10shared_ptrIN3p2t5PointEESaIS3_EEixEm
FNDA:5,_ZNSt6vectorIjSaIjEEixEm
FNDA:84,_ZNSt12_Vector_baseIhSaIhEE17_Vector_impl_data12_M_copy_dataERKS2_
FNDA:1960,_ZNKSt6vectorISt10shared_ptrIN3p2t5PointEESaIS3_EEixEm
FNDA:90,_ZNSt6vectorIN15vectorfontstorm5pointESaIS1_EE5frontEv
FNDA:26,_ZNSt6vectorIN15vectorfontstorm7contourI10TestVertexEESaIS3_EE5frontEv
FNDA:90,_ZNSt6vectorIN15vectorfontstorm7segmentI10TestVertexEESaIS3_EE5frontEv
FNDA:28,_ZNSt12_Vector_baseIhSaIhEE17_Vector_impl_data12_M_swap_dataERS2_
FNDA:5132,_ZNKSt6vectorIN15vectorfontstorm5pointESaIS1_EE5frontEv
FNDA:90,_ZNKSt6vectorIN15vectorfontstorm7segmentI10TestVertexEESaIS3_EE5frontEv
FNDA:6953,_ZNSt6vectorI10TestVertexSaIS0_EE4backEv
FNDA:3285,_ZNSt6vectorIN15vectorfontstorm5pointESaIS1_EE4backEv
FNDA:90,_ZNSt6vectorIN15vectorfontstorm7contourI10TestVertexEESaIS3_EE4backEv
FNDA:6466,_ZNSt6vectorIN15vectorfontstorm7segmentI10TestVertexEESaIS3_EE4backEv
FNDA:1960,_ZNSt6vectorIPN3p2t4EdgeESaIS2_EE4backEv
FNDA:912,_ZNSt6vectorIPN3p2t4NodeESaIS2_EE4backEv
FNDA:4392,_ZNSt6vectorIPN3p2t8TriangleESaIS2_EE4backEv
FNDA:2762,_ZNSt6vectorISt10shared_ptrIN3p2t5PointEESaIS3_EE4backEv
FNDA:6952,_ZNSt6vectorIjSaIjEE4backEv
FNDA:8372,_ZNKSt6vectorIN15vectorfontstorm5pointESaIS1_EE4backEv
FNDA:36,_ZNSt6vectorIhSaIhEE4dataEv
FNDA:8,_ZNSt6vectorIjSaIjEE9push_backEOj
FNDA:168,_ZNSt6vectorIN15vectorfontstorm5pointESaIS1_EE8pop_backEv
FNDA:1752,_ZNSt6vectorIPN3p2t8TriangleESaIS2_EE8pop_backEv
FNDA:90,_ZNSt6vectorISt10shared_ptrIN3p2t5PointEESaIS3_EE8pop_backEv
FNDA:0,_ZNSt6vectorIN15vectorfontstorm5pointESaIS1_EE7emplaceIJ7vector2IfENS1_5typesEEEEN9__gnu_cxx17__normal_iteratorIPS1_S3_EENS9_IPKS1_S3_EEDpOT_
FNDA:170,_ZNSt12_Vector_baseI10TestVertexSaIS0_EE12_Vector_implC2Ev
FNDA:1207,_ZNSt12_Vector_baseIN15vectorfontstorm5pointESaIS1_EE12_Vector_implC2Ev
FNDA:32,_ZNSt12_Vector_baseIN15vectorfontstorm7contourI10TestVertexEESaIS3_EE12_Vector_implC2Ev
FNDA:717,_ZNSt12_Vector_baseIN15vectorfontstorm7segmentI10TestVertexEESaIS3_EE12_Vector_implC2Ev
FNDA:1172,_ZNSt12_Vector_baseIPN3p2t4EdgeESaIS2_EE12_Vector_implC2Ev
FNDA:34,_ZNSt12_Vector_baseIPN3p2t4NodeESaIS2_EE12_Vector_implC2Ev
FNDA:136,_ZNSt12_Vector_baseIPN3p2t8TriangleESaIS2_EE12_Vector_implC2Ev
FNDA:90,_ZNSt12_Vector_baseISt10shared_ptrIN3p2t5PointEESaIS3_EE12_Vector_implC2Ev
FNDA:14,_ZNSt12_Vector_baseIhSaIhEE12_Vector_implC2Ev
FNDA:170,_ZNSt12_Vector_baseIjSaIjEE12_Vector_implC2Ev
FNDA:109,_ZNSt12_Vector_baseI10TestVertexSaIS0_EE12_Vector_implC2ERKS1_
FNDA:1068,_ZNSt12_Vector_baseIN15vectorfontstorm5pointESaIS1_EE12_Vector_implC2ERKS2_
FNDA:27,_ZNSt12_Vector_baseIN15vectorfontstorm7contourI10TestVertexEESaIS3_EE12_Vector_implC2ERKS4_
FNDA:24,_ZNSt12_Vector_baseIN15vectorfontstorm7segmentI10TestVertexEESaIS3_EE12_Vector_implC2ERKS4_
FNDA:68,_ZNSt12_Vector_baseISt10shared_ptrIN3p2t5PointEESaIS3_EE12_Vector_implC2ERKS4_
FNDA:31,_ZNSt12_Vector_baseIhSaIhEE12_Vector_implC2ERKS0_
FNDA:109,_ZNSt12_Vector_baseIjSaIjEE12_Vector_implC2ERKS0_
FNDA:35,_ZNSt6vectorI10TestVertexSaIS0_EE6insertIN9__gnu_cxx17__normal_iteratorIPKS0_S2_EEvEENS5_IPS0_S2_EES8_T_SB_
FNDA:35,_ZNSt6vectorIjSaIjEE6insertIN9__gnu_cxx17__normal_iteratorIPKjS1_EEvEENS4_IPjS1_EES7_T_SA_
FNDA:17,_ZNSt12_Vector_baseIhSaIhEE12_Vector_implC2EOS2_
FNDA:0,_ZNSt6vectorI10TestVertexSaIS0_EE5clearEv
FNDA:0,_ZNSt6vectorIN15vectorfontstorm5pointESaIS1_EE5clearEv
FNDA:0,_ZNSt6vectorIjSaIjEE5clearEv
FNDA:0,_ZNSt6vectorI10TestVertexSaIS0_EE20_M_allocate_and_copyIN9__gnu_cxx17__normal_iteratorIPKS0_S2_EEEEPS0_mT_SA_
FNDA:16,_ZNSt6vectorIN15vectorfontstorm5pointESaIS1_EE20_M_allocate_and_copyIN9__gnu_cxx17__normal_iteratorIPKS1_S3_EEEEPS1_mT_SB_
FNDA:0,_ZNSt6vectorIjSaIjEE20_M_allocate_and_copyIN9__gnu_cxx17__normal_iteratorIPKjS1_EEEEPjmT_S9_
FNDA:17,_ZNSt6vectorIhSaIhEE21_M_default_initializeEm
FNDA:0,_ZNSt6vectorIN15vectorfontstorm5pointESaIS1_EE16_Temporary_valueC2IJ7vector2IfENS1_5typesEEEEPS3_DpOT_
FNDA:0,_ZNSt6vectorIN15vectorfontstorm5pointESaIS1_EE16_Temporary_valueD2Ev
FNDA:0,_ZNSt6vectorIN15vectorfontstorm5pointESaIS1_EE16_Temporary_value6_M_valEv
FNDA:0,_ZNSt6vectorIN15vectorfontstorm5pointESaIS1_EE16_Temporary_value6_M_ptrEv
FNDA:0,_ZNSt6vectorIN15vectorfontstorm5pointESaIS1_EE16_Temporary_value8_StorageC2Ev
FNDA:0,_ZNSt6vectorIN15vectorfontstorm5pointESaIS1_EE16_Temporary_value8_StorageD2Ev
FNDA:751,_ZNKSt6vectorI10TestVertexSaIS0_EE12_M_check_lenEmPKc
FNDA:2582,_ZNKSt6vectorIN15vectorfontstorm5pointESaIS1_EE12_M_check_lenEmPKc
FNDA:45,_ZNKSt6vectorIN15vectorfontstorm7contourI10TestVertexEESaIS3_EE12_M_check_lenEmPKc
FNDA:887,_ZNKSt6vectorIN15vectorfontstorm7segmentI10TestVertexEESaIS3_EE12_M_check_lenEmPKc
FNDA:1322,_ZNKSt6vectorIPN3p2t4EdgeESaIS2_EE12_M_check_lenEmPKc
FNDA:338,_ZNKSt6vectorIPN3p2t4NodeESaIS2_EE12_M_check_lenEmPKc
FNDA:560,_ZNKSt6vectorIPN3p2t8TriangleESaIS2_EE12_M_check_lenEmPKc
FNDA:450,_ZNKSt6vectorISt10shared_ptrIN3p2t5PointEESaIS3_EE12_M_check_lenEmPKc
FNDA:750,_ZNKSt6vectorIjSaIjEE12_M_check_lenEmPKc
FNDA:17,_ZNSt6vectorIhSaIhEE17_S_check_init_lenEmRKS0_
FNDA:1537,_ZNSt6vectorI10TestVertexSaIS0_EE11_S_max_sizeERKS1_
FNDA:5164,_ZNSt6vectorIN15vectorfontstorm5pointESaIS1_EE11_S_max_sizeERKS2_
FNDA:90,_ZNSt6vectorIN15vectorfontstorm7contourI10TestVertexEESaIS3_EE11_S_max_sizeERKS4_
FNDA:1774,_ZNSt6vectorIN15vectorfontstorm7segmentI10TestVertexEESaIS3_EE11_S_max_sizeERKS4_
FNDA:2644,_ZNSt6vectorIPN3p2t4EdgeESaIS2_EE11_S_max_sizeERKS3_
FNDA:676,_ZNSt6vectorIPN3p2t4NodeESaIS2_EE11_S_max_sizeERKS3_
FNDA:1120,_ZNSt6vectorIPN3p2t8TriangleESaIS2_EE11_S_max_sizeERKS3_
FNDA:900,_ZNSt6vectorISt10shared_ptrIN3p2t5PointEESaIS3_EE11_S_max_sizeERKS4_
FNDA:17,_ZNSt6vectorIhSaIhEE11_S_max_sizeERKS0_
FNDA:1535,_ZNSt6vectorIjSaIjEE11_S_max_sizeERKS0_
FNDA:0,_ZNSt6vectorI10TestVertexSaIS0_EE15_M_erase_at_endEPS0_
FNDA:0,_ZNSt6vectorIN15vectorfontstorm5pointESaIS1_EE15_M_erase_at_endEPS1_
FNDA:0,_ZNSt6vectorIjSaIjEE15_M_erase_at_endEPj
FNDA:14,_ZNSt6vectorIhSaIhEE14_M_move_assignEOS1_St17integral_constantIbLb1EE
FNDA:36,_ZNKSt6vectorIhSaIhEE11_M_data_ptrIhEEPT_S4_
FNDA:1996,_ZNSt12_Vector_baseI10TestVertexSaIS0_EE19_M_get_Tp_allocatorEv
FNDA:8799,_ZNSt12_Vector_baseIN15vectorfontstorm5pointESaIS1_EE19_M_get_Tp_allocatorEv
FNDA:221,_ZNSt12_Vector_baseIN15vectorfontstorm7contourI10TestVertexEESaIS3_EE19_M_get_Tp_allocatorEv
FNDA:3426,_ZNSt12_Vector_baseIN15vectorfontstorm7segmentI10TestVertexEESaIS3_EE19_M_get_Tp_allocatorEv
FNDA:2494,_ZNSt12_Vector_baseIPN3p2t4EdgeESaIS2_EE19_M_get_Tp_allocatorEv
FNDA:744,_ZNSt12_Vector_baseIPN3p2t4NodeESaIS2_EE19_M_get_Tp_allocatorEv
FNDA:1256,_ZNSt12_Vector_baseIPN3p2t8TriangleESaIS2_EE19_M_get_Tp_allocatorEv
FNDA:1058,_ZNSt12_Vector_baseISt10shared_ptrIN3p2t5PointEESaIS3_EE19_M_get_Tp_allocatorEv
FNDA:107,_ZNSt12_Vector_baseIhSaIhEE19_M_get_Tp_allocatorEv
FNDA:1994,_ZNSt12_Vector_baseIjSaIjEE19_M_get_Tp_allocatorEv
FNDA:1646,_ZNKSt12_Vector_baseI10TestVertexSaIS0_EE19_M_get_Tp_allocatorEv
FNDA:6232,_ZNKSt12_Vector_baseIN15vectorfontstorm5pointESaIS1_EE19_M_get_Tp_allocatorEv
FNDA:117,_ZNKSt12_Vector_baseIN15vectorfontstorm7contourI10TestVertexEESaIS3_EE19_M_get_Tp_allocatorEv
FNDA:1798,_ZNKSt12_Vector_baseIN15vectorfontstorm7segmentI10TestVertexEESaIS3_EE19_M_get_Tp_allocatorEv
FNDA:2644,_ZNKSt12_Vector_baseIPN3p2t4EdgeESaIS2_EE19_M_get_Tp_allocatorEv
FNDA:676,_ZNKSt12_Vector_baseIPN3p2t4NodeESaIS2_EE19_M_get_Tp_allocatorEv
FNDA:1120,_ZNKSt12_Vector_baseIPN3p2t8TriangleESaIS2_EE19_M_get_Tp_allocatorEv
FNDA:934,_ZNKSt12_Vector_baseISt10shared_ptrIN3p2t5PointEESaIS3_EE19_M_get_Tp_allocatorEv
FNDA:14,_ZNKSt12_Vector_baseIhSaIhEE19_M_get_Tp_allocatorEv
FNDA:1644,_ZNKSt12_Vector_baseIjSaIjEE19_M_get_Tp_allocatorEv
FNDA:14,_ZNKSt12_Vector_baseIhSaIhEE13get_allocatorEv
FNDA:170,_ZNSt12_Vector_baseI10TestVertexSaIS0_EEC2Ev
FNDA:1207,_ZNSt12_Vector_baseIN15vectorfontstorm5pointESaIS1_EEC2Ev
FNDA:32,_ZNSt12_Vector_baseIN15vectorfontstorm7contourI10TestVertexEESaIS3_EEC2Ev
FNDA:717,_ZNSt12_Vector_baseIN15vectorfontstorm7segmentI10TestVertexEESaIS3_EEC2Ev
FNDA:1172,_ZNSt12_Vector_baseIPN3p2t4EdgeESaIS2_EEC2Ev
FNDA:34,_ZNSt12_Vector_baseIPN3p2t4NodeESaIS2_EEC2Ev
FNDA:136,_ZNSt12_Vector_baseIPN3p2t8TriangleESaIS2_EEC2Ev
FNDA:90,_ZNSt12_Vector_baseISt10shared_ptrIN3p2t5PointEESaIS3_EEC2Ev
FNDA:14,_ZNSt12_Vector_baseIhSaIhEEC2Ev
FNDA:170,_ZNSt12_Vector_baseIjSaIjEEC2Ev
FNDA:14,_ZNSt12_Vector_baseIhSaIhEEC2ERKS0_
FNDA:109,_ZNSt12_Vector_baseI10TestVertexSaIS0_EEC2EmRKS1_
FNDA:1068,_ZNSt12_Vector_baseIN15vectorfontstorm5pointESaIS1_EEC2EmRKS2_
FNDA:27,_ZNSt12_Vector_baseIN15vectorfontstorm7contourI10TestVertexEESaIS3_EEC2EmRKS4_
FNDA:24,_ZNSt12_Vector_baseIN15vectorfontstorm7segmentI10TestVertexEESaIS3_EEC2EmRKS4_
FNDA:68,_ZNSt12_Vector_baseISt10shared_ptrIN3p2t5PointEESaIS3_EEC2EmRKS4_
FNDA:17,_ZNSt12_Vector_baseIhSaIhEEC2EmRKS0_
FNDA:109,_ZNSt12_Vector_baseIjSaIjEEC2EmRKS0_
FNDA:17,_ZNSt12_Vector_baseIhSaIhEEC2EOS1_
FNDA:279,_ZNSt12_Vector_baseI10TestVertexSaIS0_EED2Ev
FNDA:2275,_ZNSt12_Vector_baseIN15vectorfontstorm5pointESaIS1_EED2Ev
FNDA:59,_ZNSt12_Vector_baseIN15vectorfontstorm7contourI10TestVertexEESaIS3_EED2Ev
FNDA:741,_ZNSt12_Vector_baseIN15vectorfontstorm7segmentI10TestVertexEESaIS3_EED2Ev
FNDA:1172,_ZNSt12_Vector_baseIPN3p2t4EdgeESaIS2_EED2Ev
FNDA:68,_ZNSt12_Vector_baseIPN3p2t4NodeESaIS2_EED2Ev
FNDA:136,_ZNSt12_Vector_baseIPN3p2t8TriangleESaIS2_EED2Ev
FNDA:124,_ZNSt12_Vector_baseISt10shared_ptrIN3p2t5PointEESaIS3_EED2Ev
FNDA:62,_ZNSt12_Vector_baseIhSaIhEED2Ev
FNDA:279,_ZNSt12_Vector_baseIjSaIjEED2Ev
FNDA:895,_ZNSt12_Vector_baseI10TestVertexSaIS0_EE11_M_allocateEm
FNDA:3666,_ZNSt12_Vector_baseIN15vectorfontstorm5pointESaIS1_EE11_M_allocateEm
FNDA:72,_ZNSt12_Vector_baseIN15vectorfontstorm7contourI10TestVertexEESaIS3_EE11_M_allocateEm
FNDA:911,_ZNSt12_Vector_baseIN15vectorfontstorm7segmentI10TestVertexEESaIS3_EE11_M_allocateEm
FNDA:1322,_ZNSt12_Vector_baseIPN3p2t4EdgeESaIS2_EE11_M_allocateEm
FNDA:338,_ZNSt12_Vector_baseIPN3p2t4NodeESaIS2_EE11_M_allocateEm
FNDA:560,_ZNSt12_Vector_baseIPN3p2t8TriangleESaIS2_EE11_M_allocateEm
FNDA:484,_ZNSt12_Vector_baseISt10shared_ptrIN3p2t5PointEESaIS3_EE11_M_allocateEm
FNDA:17,_ZNSt12_Vector_baseIhSaIhEE11_M_allocateEm
FNDA:894,_ZNSt12_Vector_baseIjSaIjEE11_M_allocateEm
FNDA:1065,_ZNSt12_Vector_baseI10TestVertexSaIS0_EE13_M_deallocateEPS0_m
FNDA:4873,_ZNSt12_Vector_baseIN15vectorfontstorm5pointESaIS1_EE13_M_deallocateEPS1_m
FNDA:104,_ZNSt12_Vector_baseIN15vectorfontstorm7contourI10TestVertexEESaIS3_EE13_M_deallocateEPS3_m
FNDA:1628,_ZNSt12_Vector_baseIN15vectorfontstorm7segmentI10TestVertexEESaIS3_EE13_M_deallocateEPS3_m
FNDA:1833,_ZNSt12_Vector_baseIPN3p2t4EdgeESaIS2_EE13_M_deallocateEPS2_m
FNDA:406,_ZNSt12_Vector_baseIPN3p2t4NodeESaIS2_EE13_M_deallocateEPS2_m
FNDA:696,_ZNSt12_Vector_baseIPN3p2t8TriangleESaIS2_EE13_M_deallocateEPS2_m
FNDA:574,_ZNSt12_Vector_baseISt10shared_ptrIN3p2t5PointEESaIS3_EE13_M_deallocateEPS3_m
FNDA:62,_ZNSt12_Vector_baseIhSaIhEE13_M_deallocateEPhm
FNDA:1064,_ZNSt12_Vector_baseIjSaIjEE13_M_deallocateEPjm
FNDA:109,_ZNSt12_Vector_baseI10TestVertexSaIS0_EE17_M_create_storageEm
FNDA:1068,_ZNSt12_Vector_baseIN15vectorfontstorm5pointESaIS1_EE17_M_create_storageEm
FNDA:27,_ZNSt12_Vector_baseIN15vectorfontstorm7contourI10TestVertexEESaIS3_EE17_M_create_storageEm
FNDA:24,_ZNSt12_Vector_baseIN15vectorfontstorm7segmentI10TestVertexEESaIS3_EE17_M_create_storageEm
FNDA:68,_ZNSt12_Vector_baseISt10shared_ptrIN3p2t5PointEESaIS3_EE17_M_create_storageEm
FNDA:17,_ZNSt12_Vector_baseIhSaIhEE17_M_create_storageEm
FNDA:109,_ZNSt12_Vector_baseIjSaIjEE17_M_create_storageEm
FNDA:1537,_ZNSt6vectorI10TestVertexSaIS0_EE11_S_relocateEPS0_S3_S3_RS1_
FNDA:5164,_ZNSt6vectorIN15vectorfontstorm5pointESaIS1_EE11_S_relocateEPS1_S4_S4_RS2_
FNDA:2644,_ZNSt6vectorIPN3p2t4EdgeESaIS2_EE11_S_relocateEPS2_S5_S5_RS3_
FNDA:676,_ZNSt6vectorIPN3p2t4NodeESaIS2_EE11_S_relocateEPS2_S5_S5_RS3_
FNDA:1120,_ZNSt6vectorIPN3p2t8TriangleESaIS2_EE11_S_relocateEPS2_S5_S5_RS3_
FNDA:900,_ZNSt6vectorISt10shared_ptrIN3p2t5PointEESaIS3_EE11_S_relocateEPS3_S6_S6_RS4_
FNDA:1535,_ZNSt6vectorIjSaIjEE11_S_relocateEPjS2_S2_RS0_
FNDA:170,_ZNSt6vectorI10TestVertexSaIS0_EEC2Ev
FNDA:1207,_ZNSt6vectorIN15vectorfontstorm5pointESaIS1_EEC2Ev
FNDA:32,_ZNSt6vectorIN15vectorfontstorm7contourI10TestVertexEESaIS3_EEC2Ev
FNDA:717,_ZNSt6vectorIN15vectorfontstorm7segmentI10TestVertexEESaIS3_EEC2Ev
FNDA:1172,_ZNSt6vectorIPN3p2t4EdgeESaIS2_EEC2Ev
FNDA:34,_ZNSt6vectorIPN3p2t4NodeESaIS2_EEC2Ev
FNDA:136,_ZNSt6vectorIPN3p2t8TriangleESaIS2_EEC2Ev
FNDA:90,_ZNSt6vectorISt10shared_ptrIN3p2t5PointEESaIS3_EEC2Ev
FNDA:14,_ZNSt6vectorIhSaIhEEC2Ev
FNDA:170,_ZNSt6vectorIjSaIjEEC2Ev
FNDA:14,_ZNSt6vectorIhSaIhEEC2ERKS0_
FNDA:17,_ZNSt6vectorIhSaIhEEC2EmRKS0_
FNDA:109,_ZNSt6vectorI10TestVertexSaIS0_EEC2ERKS2_
FNDA:1068,_ZNSt6vectorIN15vectorfontstorm5pointESaIS1_EEC2ERKS3_
FNDA:27,_ZNSt6vectorIN15vectorfontstorm7contourI10TestVertexEESaIS3_EEC2ERKS5_
FNDA:24,_ZNSt6vectorIN15vectorfontstorm7segmentI10TestVertexEESaIS3_EEC2ERKS5_
FNDA:68,_ZNSt6vectorISt10shared_ptrIN3p2t5PointEESaIS3_EEC2ERKS5_
FNDA:109,_ZNSt6vectorIjSaIjEEC2ERKS1_
FNDA:17,_ZNSt6vectorIhSaIhEEC2EOS1_
FNDA:279,_ZNSt6vectorI10TestVertexSaIS0_EED2Ev
FNDA:2275,_ZNSt6vectorIN15vectorfontstorm5pointESaIS1_EED2Ev
FNDA:59,_ZNSt6vectorIN15vectorfontstorm7contourI10TestVertexEESaIS3_EED2Ev
FNDA:741,_ZNSt6vectorIN15vectorfontstorm7segmentI10TestVertexEESaIS3_EED2Ev
FNDA:1172,_ZNSt6vectorIPN3p2t4EdgeESaIS2_EED2Ev
FNDA:68,_ZNSt6vectorIPN3p2t4NodeESaIS2_EED2Ev
FNDA:136,_ZNSt6vectorIPN3p2t8TriangleESaIS2_EED2Ev
FNDA:124,_ZNSt6vectorISt10shared_ptrIN3p2t5PointEESaIS3_EED2Ev
FNDA:62,_ZNSt6vectorIhSaIhEED2Ev
FNDA:279,_ZNSt6vectorIjSaIjEED2Ev
FNDA:14,_ZNSt6vectorIhSaIhEEaSEOS1_
FNDA:827,_ZNSt6vectorI10TestVertexSaIS0_EE5beginEv
FNDA:3223,_ZNSt6vectorIN15vectorfontstorm5pointESaIS1_EE5beginEv
FNDA:135,_ZNSt6vectorIN15vectorfontstorm7contourI10TestVertexEESaIS3_EE5beginEv
FNDA:1701,_ZNSt6vectorIN15vectorfontstorm7segmentI10TestVertexEESaIS3_EE5beginEv
FNDA:1390,_ZNSt6vectorIPN3p2t4EdgeESaIS2_EE5beginEv
FNDA:338,_ZNSt6vectorIPN3p2t4NodeESaIS2_EE5beginEv
FNDA:314,_ZNSt6vectorIPN3p2t8TriangleESaIS2_EE5beginEv
FNDA:484,_ZNSt6vectorISt10shared_ptrIN3p2t5PointEESaIS3_EE5beginEv
FNDA:826,_ZNSt6vectorIjSaIjEE5beginEv
FNDA:235,_ZNKSt6vectorI10TestVertexSaIS0_EE5beginEv
FNDA:6476,_ZNKSt6vectorIN15vectorfontstorm5pointESaIS1_EE5beginEv
FNDA:55,_ZNKSt6vectorIN15vectorfontstorm7contourI10TestVertexEESaIS3_EE5beginEv
FNDA:294,_ZNKSt6vectorIN15vectorfontstorm7segmentI10TestVertexEESaIS3_EE5beginEv
FNDA:1820,_ZNKSt6vectorIPN3p2t8TriangleESaIS2_EE5beginEv
FNDA:90,_ZNKSt6vectorISt10shared_ptrIN3p2t5PointEESaIS3_EE5beginEv
FNDA:17,_ZNKSt6vectorIhSaIhEE5beginEv
FNDA:154,_ZNKSt6vectorIjSaIjEE5beginEv
FNDA:7780,_ZNSt6vectorI10TestVertexSaIS0_EE3endEv
FNDA:6418,_ZNSt6vectorIN15vectorfontstorm5pointESaIS1_EE3endEv
FNDA:278,_ZNSt6vectorIN15vectorfontstorm7contourI10TestVertexEESaIS3_EE3endEv
FNDA:8077,_ZNSt6vectorIN15vectorfontstorm7segmentI10TestVertexEESaIS3_EE3endEv
FNDA:3350,_ZNSt6vectorIPN3p2t4EdgeESaIS2_EE3endEv
FNDA:1250,_ZNSt6vectorIPN3p2t4NodeESaIS2_EE3endEv
FNDA:2510,_ZNSt6vectorIPN3p2t8TriangleESaIS2_EE3endEv
FNDA:3246,_ZNSt6vectorISt10shared_ptrIN3p2t5PointEESaIS3_EE3endEv
FNDA:7848,_ZNSt6vectorIjSaIjEE3endEv
FNDA:235,_ZNKSt6vectorI10TestVertexSaIS0_EE3endEv
FNDA:9716,_ZNKSt6vectorIN15vectorfontstorm5pointESaIS1_EE3endEv
FNDA:55,_ZNKSt6vectorIN15vectorfontstorm7contourI10TestVertexEESaIS3_EE3endEv
FNDA:204,_ZNKSt6vectorIN15vectorfontstorm7segmentI10TestVertexEESaIS3_EE3endEv
FNDA:1820,_ZNKSt6vectorIPN3p2t8TriangleESaIS2_EE3endEv
FNDA:90,_ZNKSt6vectorISt10shared_ptrIN3p2t5PointEESaIS3_EE3endEv
FNDA:17,_ZNKSt6vectorIhSaIhEE3endEv
FNDA:154,_ZNKSt6vectorIjSaIjEE3endEv
FNDA:35,_ZNKSt6vectorI10TestVertexSaIS0_EE6cbeginEv
FNDA:0,_ZNKSt6vectorIN15vectorfontstorm5pointESaIS1_EE6cbeginEv
FNDA:35,_ZNKSt6vectorIjSaIjEE6cbeginEv
FNDA:0,_ZNKSt6vectorIN15vectorfontstorm5pointESaIS1_EE4cendEv
FNDA:279,_ZNSt12_Vector_baseI10TestVertexSaIS0_EE17_Vector_impl_dataC2Ev
FNDA:2275,_ZNSt12_Vector_baseIN15vectorfontstorm5pointESaIS1_EE17_Vector_impl_dataC2Ev
FNDA:59,_ZNSt12_Vector_baseIN15vectorfontstorm7contourI10TestVertexEESaIS3_EE17_Vector_impl_dataC2Ev
FNDA:741,_ZNSt12_Vector_baseIN15vectorfontstorm7segmentI10TestVertexEESaIS3_EE17_Vector_impl_dataC2Ev
FNDA:1172,_ZNSt12_Vector_baseIPN3p2t4EdgeESaIS2_EE17_Vector_impl_dataC2Ev
FNDA:34,_ZNSt12_Vector_baseIPN3p2t4NodeESaIS2_EE17_Vector_impl_dataC2Ev
FNDA:136,_ZNSt12_Vector_baseIPN3p2t8TriangleESaIS2_EE17_Vector_impl_dataC2Ev
FNDA:124,_ZNSt12_Vector_baseISt10shared_ptrIN3p2t5PointEESaIS3_EE17_Vector_impl_dataC2Ev
FNDA:73,_ZNSt12_Vector_baseIhSaIhEE17_Vector_impl_dataC2Ev
FNDA:279,_ZNSt12_Vector_baseIjSaIjEE17_Vector_impl_dataC2Ev
FNDA:6286,_ZNKSt6vectorI10TestVertexSaIS0_EE4sizeEv
FNDA:12867,_ZNKSt6vectorIN15vectorfontstorm5pointESaIS1_EE4sizeEv
FNDA:207,_ZNKSt6vectorIN15vectorfontstorm7contourI10TestVertexEESaIS3_EE4sizeEv
FNDA:3740,_ZNKSt6vectorIN15vectorfontstorm7segmentI10TestVertexEESaIS3_EE4sizeEv
FNDA:7180,_ZNKSt6vectorIPN3p2t4EdgeESaIS2_EE4sizeEv
FNDA:2332,_ZNKSt6vectorIPN3p2t4NodeESaIS2_EE4sizeEv
FNDA:2240,_ZNKSt6vectorIPN3p2t8TriangleESaIS2_EE4sizeEv
FNDA:5703,_ZNKSt6vectorISt10shared_ptrIN3p2t5PointEESaIS3_EE4sizeEv
FNDA:19,_ZNKSt6vectorIhSaIhEE4sizeEv
FNDA:3238,_ZNKSt6vectorIjSaIjEE4sizeEv
FNDA:1537,_ZNKSt6vectorI10TestVertexSaIS0_EE8max_sizeEv
FNDA:5164,_ZNKSt6vectorIN15vectorfontstorm5pointESaIS1_EE8max_sizeEv
FNDA:90,_ZNKSt6vectorIN15vectorfontstorm7contourI10TestVertexEESaIS3_EE8max_sizeEv
FNDA:1774,_ZNKSt6vectorIN15vectorfontstorm7segmentI10TestVertexEESaIS3_EE8max_sizeEv
FNDA:2644,_ZNKSt6vectorIPN3p2t4EdgeESaIS2_EE8max_sizeEv
FNDA:676,_ZNKSt6vectorIPN3p2t4NodeESaIS2_EE8max_sizeEv
FNDA:1120,_ZNKSt6vectorIPN3p2t8TriangleESaIS2_EE8max_sizeEv
FNDA:900,_ZNKSt6vectorISt10shared_ptrIN3p2t5PointEESaIS3_EE8max_sizeEv
FNDA:1535,_ZNKSt6vectorIjSaIjEE8max_sizeEv
FNF:279
FNH:262
DA:99,5172
DA:100,5172
DA:101,5172
DA:105,17
DA:106,17
DA:107,17
DA:108,17
DA:113,84
DA:115,84
DA:116,84
DA:117,84
DA:118,84
DA:122,28
DA:126,28
DA:127,28
DA:128,28
DA:129,28
DA:130,28
DA:137,3742
DA:142,3742
DA:143,3742
DA:146,1436
DA:147,1436
DA:148,1436
DA:154,17
DA:155,34
DA:156,17
DA:301,22095
DA:302,22095
DA:306,16825
DA:307,16825
DA:311,14
DA:312,28
DA:315,3742
DA:321,14
DA:322,14
DA:333,1422
DA:334,1422
DA:335,1422
DA:338,17
DA:367,5195
DA:369,5195
DA:370,5195
DA:371,5195
DA:378,9159
DA:381,18075
DA:386,12305
DA:389,12305
DA:390,8255
DA:391,12305
DA:396,1422
DA:398,1422
DA:399,1422
DA:400,1422
DA:401,1422
DA:504,13576
DA:509,13576
DA:531,3742
DA:542,14
DA:543,14
DA:556,17
DA:557,17
DA:558,17
DA:601,1405
DA:603,2810
DA:605,1405
DA:606,1405
DA:608,1405
DA:609,1405
DA:620,17
DA:733,5195
DA:735,5195
DA:736,5195
DA:738,5195
DA:766,14
DA:768,14
DA:771,14
DA:772,14
DA:873,9238
DA:874,9238
DA:883,9141
DA:884,9141
DA:893,40757
DA:894,40757
DA:903,12291
DA:904,12291
DA:954,70
DA:955,70
DA:964,0
DA:965,0
DA:992,43812
DA:993,43812
DA:998,15440
DA:999,15440
DA:1078,348
DA:1079,348
DA:1080,348
DA:1088,1964
DA:1089,1964
DA:1126,8263
DA:1129,8263
DA:1145,1960
DA:1148,1960
DA:1209,206
DA:1212,206
DA:1221,5222
DA:1224,5222
DA:1233,33772
DA:1236,33772
DA:1245,8372
DA:1248,8372
DA:1260,36
DA:1261,36
DA:1298,8
DA:1299,8
DA:1322,2010
DA:1325,2010
DA:1326,2010
DA:1328,2010
DA:1346,0
DA:1347,0
DA:1482,70
DA:1485,70
DA:1486,70
DA:1487,70
DA:1488,70
DA:1605,0
DA:1606,0
DA:1616,16
DA:1619,16
DA:1622,16
DA:1623,16
DA:1624,16
DA:1626,0
DA:1628,0
DA:1629,0
DA:1715,17
DA:1717,17
DA:1718,17
DA:1719,17
DA:1720,17
DA:1833,0
DA:1835,0
DA:1837,0
DA:1840,0
DA:1841,0
DA:1844,0
DA:1848,0
DA:1852,0
DA:1853,0
DA:1896,7685
DA:1898,7685
DA:1899,0
DA:1901,7685
DA:1902,7685
DA:1907,17
DA:1909,17
DA:1910,0
DA:1912,17
DA:1916,15457
DA:1921,15457
DA:1923,15457
DA:1924,15457
DA:1933,0
DA:1935,0
DA:1937,0
DA:1938,0
DA:1939,0
DA:1942,0
DA:1959,14
DA:1961,14
DA:1962,14
DA:1963,14
DA:1964,14
DA:1965,14
DA:1990,36
DA:1991,36
LF:177
LH:151
end_of_record
TN:
SF:/usr/include/c++/13/bits/unordered_map.h
FN:148,148,_ZNSt13unordered_mapIDiN15vectorfontstorm5glyphI10TestVertexEESt4hashIDiESt8equal_toIDiESaISt4pairIKDiS3_EEEC2Ev
FN:2129,2132,_ZSt4swapIDiN15vectorfontstorm5glyphI10TestVertexEESt4hashIDiESt8equal_toIDiESaISt4pairIKDiS3_EEEvRSt13unordered_mapIT_T0_T1_T2_T3_ESJ_
FN:354,355,_ZNSt13unordered_mapIDiN15vectorfontstorm5glyphI10TestVertexEESt4hashIDiESt8equal_toIDiESaISt4pairIKDiS3_EEE3endEv
FN:395,396,_ZNSt13unordered_mapIDiN15vectorfontstorm5glyphI10TestVertexEESt4hashIDiESt8equal_toIDiESaISt4pairIKDiS3_EEE7emplaceIJRS9_S3_EEES8_INSt8__detail14_Node_iteratorISA_Lb0ELb0EEEbEDpOT_
FN:811,813,_ZNSt13unordered_mapIDiN15vectorfontstorm5glyphI10TestVertexEESt4hashIDiESt8equal_toIDiESaISt4pairIKDiS3_EEE4swapERSC_
FN:875,876,_ZNSt13unordered_mapIDiN15vectorfontstorm5glyphI10TestVertexEESt4hashIDiESt8equal_toIDiESaISt4pairIKDiS3_EEE4findERS9_
FNDA:19,_ZNSt13unordered_mapIDiN15vectorfontstorm5glyphI10TestVertexEESt4hashIDiESt8equal_toIDiESaISt4pairIKDiS3_EEEC2Ev
FNDA:1,_ZSt4swapIDiN15vectorfontstorm5glyphI10TestVertexEESt4hashIDiESt8equal_toIDiESaISt4pairIKDiS3_EEEvRSt13unordered_mapIT_T0_T1_T2_T3_ESJ_
FNDA:30,_ZNSt13unordered_mapIDiN15vectorfontstorm5glyphI10TestVertexEESt4hashIDiESt8equal_toIDiESaISt4pairIKDiS3_EEE3endEv
FNDA:27,_ZNSt13unordered_mapIDiN15vectorfontstorm5glyphI10TestVertexEESt4hashIDiESt8equal_toIDiESaISt4pairIKDiS3_EEE7emplaceIJRS9_S3_EEES8_INSt8__detail14_Node_iteratorISA_Lb0ELb0EEEbEDpOT_
FNDA:1,_ZNSt13unordered_mapIDiN15vectorfontstorm5glyphI10TestVertexEESt4hashIDiESt8equal_toIDiESaISt4pairIKDiS3_EEE4swapERSC_
FNDA:30,_ZNSt13unordered_mapIDiN15vectorfontstorm5glyphI10TestVertexEESt4hashIDiESt8equal_toIDiESaISt4pairIKDiS3_EEE4findERS9_
FNF:6
FNH:6
DA:148,19
DA:354,30
DA:355,30
DA:395,27
DA:396,27
DA:811,1
DA:813,1
DA:875,30
DA:876,30
DA:2129,1
DA:2132,1
LF:11
LH:11
end_of_record
TN:
SF:/usr/include/c++/13/bits/vector.tcc
FN:111,127,_ZNSt6vectorI10TestVertexSaIS0_EE12emplace_backIJRKfS5_fEEERS0_DpOT_
FN:111,127,_ZNSt6vectorI10TestVertexSaIS0_EE12emplace_backIJRfS4_fEEERS0_DpOT_
FN:111,127,_ZNSt6vectorI10TestVertexSaIS0_EE12emplace_backIJfffEEERS0_DpOT_
FN:111,127,_ZNSt6vectorIN15vectorfontstorm5pointESaIS1_EE12emplace_backIJRK7vector2IfENS1_5typesEEEERS1_DpOT_
FN:111,127,_ZNSt6vectorIN15vectorfontstorm5pointESaIS1_EE12emplace_backIJRKS1_EEERS1_DpOT_
FN:111,127,_ZNSt6vectorIN15vectorfontstorm5pointESaIS1_EE12emplace_backIJRS1_EEES5_DpOT_
FN:111,127,_ZNSt6vectorIN15vectorfontstorm5pointESaIS1_EE12emplace_backIJddRKNS1_5typesEEEERS1_DpOT_
FN:111,127,_ZNSt6vectorIN15vectorfontstorm7contourI10TestVertexEESaIS3_EE12emplace_backIJEEERS3_DpOT_
FN:111,127,_ZNSt6vectorIN15vectorfontstorm7segmentI10TestVertexEESaIS3_EE12emplace_backIJEEERS3_DpOT_
FN:111,127,_ZNSt6vectorIPN3p2t4EdgeESaIS2_EE12emplace_backIJS2_EEERS2_DpOT_
FN:111,127,_ZNSt6vectorIPN3p2t4NodeESaIS2_EE12emplace_backIJRS2_EEES6_DpOT_
FN:111,127,_ZNSt6vectorIPN3p2t8TriangleESaIS2_EE12emplace_backIJRS2_EEES6_DpOT_
FN:111,127,_ZNSt6vectorIPN3p2t8TriangleESaIS2_EE12emplace_backIJS2_EEERS2_DpOT_
FN:111,127,_ZNSt6vectorISt10shared_ptrIN3p2t5PointEESaIS3_EE12emplace_backIJPS2_EEERS3_DpOT_
FN:111,127,_ZNSt6vectorISt10shared_ptrIN3p2t5PointEESaIS3_EE12emplace_backIJRKS3_EEERS3_DpOT_
FN:111,127,_ZNSt6vectorISt10shared_ptrIN3p2t5PointEESaIS3_EE12emplace_backIJRPS2_EEERS3_DpOT_
FN:111,127,_ZNSt6vectorIjSaIjEE12emplace_backIJRKjEEERjDpOT_
FN:111,127,_ZNSt6vectorIjSaIjEE12emplace_backIJjEEERjDpOT_
FN:111,127,_ZNSt6vectorIjSaIjEE12emplace_backIJmEEERjDpOT_
FN:210,265,_ZNSt6vectorI10TestVertexSaIS0_EEaSERKS2_
FN:210,265,_ZNSt6vectorIN15vectorfontstorm5pointESaIS1_EEaSERKS3_
FN:210,265,_ZNSt6vectorIjSaIjEEaSERKS1_
FN:381,407,_ZNSt6vectorIN15vectorfontstorm5pointESaIS1_EE14_M_emplace_auxIJ7vector2IfENS1_5typesEEEEN9__gnu_cxx17__normal_iteratorIPS1_S3_EENS9_IPKS1_S3_EEDpOT_
FN:413,438,_ZNSt6vectorIN15vectorfontstorm5pointESaIS1_EE13_M_insert_auxIS1_EEvN9__gnu_cxx17__normal_iteratorIPS1_S3_EEOT_
FN:445,524,_ZNSt6vectorI10TestVertexSaIS0_EE17_M_realloc_insertIJRKfS5_fEEEvN9__gnu_cxx17__normal_iteratorIPS0_S2_EEDpOT_
FN:445,524,_ZNSt6vectorI10TestVertexSaIS0_EE17_M_realloc_insertIJRfS4_fEEEvN9__gnu_cxx17__normal_iteratorIPS0_S2_EEDpOT_
FN:445,524,_ZNSt6vectorI10TestVertexSaIS0_EE17_M_realloc_insertIJfffEEEvN9__gnu_cxx17__normal_iteratorIPS0_S2_EEDpOT_
FN:445,524,_ZNSt6vectorIN15vectorfontstorm5pointESaIS1_EE17_M_realloc_insertIJ7vector2IfENS1_5typesEEEEvN9__gnu_cxx17__normal_iteratorIPS1_S3_EEDpOT_
FN:445,524,_ZNSt6vectorIN15vectorfontstorm5pointESaIS1_EE17_M_realloc_insertIJRK7vector2IfENS1_5typesEEEEvN9__gnu_cxx17__normal_iteratorIPS1_S3_EEDpOT_
FN:445,524,_ZNSt6vectorIN15vectorfontstorm5pointESaIS1_EE17_M_realloc_insertIJRKS1_EEEvN9__gnu_cxx17__normal_iteratorIPS1_S3_EEDpOT_
FN:445,524,_ZNSt6vectorIN15vectorfontstorm5pointESaIS1_EE17_M_realloc_insertIJRS1_EEEvN9__gnu_cxx17__normal_iteratorIPS1_S3_EEDpOT_
FN:445,524,_ZNSt6vectorIN15vectorfontstorm5pointESaIS1_EE17_M_realloc_insertIJddRKNS1_5typesEEEEvN9__gnu_cxx17__normal_iteratorIPS1_S3_EEDpOT_
FN:445,524,_ZNSt6vectorIN15vectorfontstorm7contourI10TestVertexEESaIS3_EE17_M_realloc_insertIJEEEvN9__gnu_cxx17__normal_iteratorIPS3_S5_EEDpOT_
FN:445,524,_ZNSt6vectorIN15vectorfontstorm7segmentI10TestVertexEESaIS3_EE17_M_realloc_insertIJEEEvN9__gnu_cxx17__normal_iteratorIPS3_S5_EEDpOT_
FN:445,524,_ZNSt6vectorIPN3p2t4EdgeESaIS2_EE17_M_realloc_insertIJS2_EEEvN9__gnu_cxx17__normal_iteratorIPS2_S4_EEDpOT_
FN:445,524,_ZNSt6vectorIPN3p2t4NodeESaIS2_EE17_M_realloc_insertIJRS2_EEEvN9__gnu_cxx17__normal_iteratorIPS2_S4_EEDpOT_
FN:445,524,_ZNSt6vectorIPN3p2t8TriangleESaIS2_EE17_M_realloc_insertIJRS2_EEEvN9__gnu_cxx17__normal_iteratorIPS2_S4_EEDpOT_
FN:445,524,_ZNSt6vectorIPN3p2t8TriangleESaIS2_EE17_M_realloc_insertIJS2_EEEvN9__gnu_cxx17__normal_iteratorIPS2_S4_EEDpOT_
FN:445,524,_ZNSt6vectorISt10shared_ptrIN3p2t5PointEESaIS3_EE17_M_realloc_insertIJPS2_EEEvN9__gnu_cxx17__normal_iteratorIPS3_S5_EEDpOT_
FN:445,524,_ZNSt6vectorISt10shared_ptrIN3p2t5PointEESaIS3_EE17_M_realloc_insertIJRKS3_EEEvN9__gnu_cxx17__normal_iteratorIPS3_S5_EEDpOT_
FN:445,524,_ZNSt6vectorISt10shared_ptrIN3p2t5PointEESaIS3_EE17_M_realloc_insertIJRPS2_EEEvN9__gnu_cxx17__normal_iteratorIPS3_S5_EEDpOT_
FN:445,524,_ZNSt6vectorIjSaIjEE17_M_realloc_insertIJRKjEEEvN9__gnu_cxx17__normal_iteratorIPjS1_EEDpOT_
FN:445,524,_ZNSt6vectorIjSaIjEE17_M_realloc_insertIJjEEEvN9__gnu_cxx17__normal_iteratorIPjS1_EEDpOT_
FN:445,524,_ZNSt6vectorIjSaIjEE17_M_realloc_insertIJmEEEvN9__gnu_cxx17__normal_iteratorIPjS1_EEDpOT_
FN:67,100,_ZNSt6vectorI10TestVertexSaIS0_EE7reserveEm
FN:67,100,_ZNSt6vectorIjSaIjEE7reserveEm
FN:751,839,_ZNSt6vectorI10TestVertexSaIS0_EE15_M_range_insertIN9__gnu_cxx17__normal_iteratorIPKS0_S2_EEEEvNS5_IPS0_S2_EET_SB_St20forward_iterator_tag
FN:751,839,_ZNSt6vectorIjSaIjEE15_M_range_insertIN9__gnu_cxx17__normal_iteratorIPKjS1_EEEEvNS4_IPjS1_EET_SA_St20forward_iterator_tag
FNDA:4280,_ZNSt6vectorI10TestVertexSaIS0_EE12emplace_backIJRKfS5_fEEERS0_DpOT_
FNDA:2664,_ZNSt6vectorI10TestVertexSaIS0_EE12emplace_backIJRfS4_fEEERS0_DpOT_
FNDA:9,_ZNSt6vectorI10TestVertexSaIS0_EE12emplace_backIJfffEEERS0_DpOT_
FNDA:1680,_ZNSt6vectorIN15vectorfontstorm5pointESaIS1_EE12emplace_backIJRK7vector2IfENS1_5typesEEEERS1_DpOT_
FNDA:490,_ZNSt6vectorIN15vectorfontstorm5pointESaIS1_EE12emplace_backIJRKS1_EEERS1_DpOT_
FNDA:45,_ZNSt6vectorIN15vectorfontstorm5pointESaIS1_EE12emplace_backIJRS1_EEES5_DpOT_
FNDA:535,_ZNSt6vectorIN15vectorfontstorm5pointESaIS1_EE12emplace_backIJddRKNS1_5typesEEEERS1_DpOT_
FNDA:45,_ZNSt6vectorIN15vectorfontstorm7contourI10TestVertexEESaIS3_EE12emplace_backIJEEERS3_DpOT_
FNDA:1207,_ZNSt6vectorIN15vectorfontstorm7segmentI10TestVertexEESaIS3_EE12emplace_backIJEEERS3_DpOT_
FNDA:1960,_ZNSt6vectorIPN3p2t4EdgeESaIS2_EE12emplace_backIJS2_EEERS2_DpOT_
FNDA:912,_ZNSt6vectorIPN3p2t4NodeESaIS2_EE12emplace_backIJRS2_EEES6_DpOT_
FNDA:888,_ZNSt6vectorIPN3p2t8TriangleESaIS2_EE12emplace_backIJRS2_EEES6_DpOT_
FNDA:1752,_ZNSt6vectorIPN3p2t8TriangleESaIS2_EE12emplace_backIJS2_EEERS2_DpOT_
FNDA:1070,_ZNSt6vectorISt10shared_ptrIN3p2t5PointEESaIS3_EE12emplace_backIJPS2_EEERS3_DpOT_
FNDA:284,_ZNSt6vectorISt10shared_ptrIN3p2t5PointEESaIS3_EE12emplace_backIJRKS3_EEERS3_DpOT_
FNDA:0,_ZNSt6vectorISt10shared_ptrIN3p2t5PointEESaIS3_EE12emplace_backIJRPS2_EEERS3_DpOT_
FNDA:888,_ZNSt6vectorIjSaIjEE12emplace_backIJRKjEEERjDpOT_
FNDA:4994,_ZNSt6vectorIjSaIjEE12emplace_backIJjEEERjDpOT_
FNDA:1070,_ZNSt6vectorIjSaIjEE12emplace_backIJmEEERjDpOT_
FNDA:1,_ZNSt6vectorI10TestVertexSaIS0_EEaSERKS2_
FNDA:276,_ZNSt6vectorIN15vectorfontstorm5pointESaIS1_EEaSERKS3_
FNDA:1,_ZNSt6vectorIjSaIjEEaSERKS1_
FNDA:0,_ZNSt6vectorIN15vectorfontstorm5pointESaIS1_EE14_M_emplace_auxIJ7vector2IfENS1_5typesEEEEN9__gnu_cxx17__normal_iteratorIPS1_S3_EENS9_IPKS1_S3_EEDpOT_
FNDA:0,_ZNSt6vectorIN15vectorfontstorm5pointESaIS1_EE13_M_insert_auxIS1_EEvN9__gnu_cxx17__normal_iteratorIPS1_S3_EEOT_
FNDA:384,_ZNSt6vectorI10TestVertexSaIS0_EE17_M_realloc_insertIJRKfS5_fEEEvN9__gnu_cxx17__normal_iteratorIPS0_S2_EEDpOT_
FNDA:358,_ZNSt6vectorI10TestVertexSaIS0_EE17_M_realloc_insertIJRfS4_fEEEvN9__gnu_cxx17__normal_iteratorIPS0_S2_EEDpOT_
FNDA:9,_ZNSt6vectorI10TestVertexSaIS0_EE17_M_realloc_insertIJfffEEEvN9__gnu_cxx17__normal_iteratorIPS0_S2_EEDpOT_
FNDA:0,_ZNSt6vectorIN15vectorfontstorm5pointESaIS1_EE17_M_realloc_insertIJ7vector2IfENS1_5typesEEEEvN9__gnu_cxx17__normal_iteratorIPS1_S3_EEDpOT_
FNDA:1512,_ZNSt6vectorIN15vectorfontstorm5pointESaIS1_EE17_M_realloc_insertIJRK7vector2IfENS1_5typesEEEEvN9__gnu_cxx17__normal_iteratorIPS1_S3_EEDpOT_
FNDA:490,_ZNSt6vectorIN15vectorfontstorm5pointESaIS1_EE17_M_realloc_insertIJRKS1_EEEvN9__gnu_cxx17__normal_iteratorIPS1_S3_EEDpOT_
FNDA:45,_ZNSt6vectorIN15vectorfontstorm5pointESaIS1_EE17_M_realloc_insertIJRS1_EEEvN9__gnu_cxx17__normal_iteratorIPS1_S3_EEDpOT_
FNDA:535,_ZNSt6vectorIN15vectorfontstorm5pointESaIS1_EE17_M_realloc_insertIJddRKNS1_5typesEEEEvN9__gnu_cxx17__normal_iteratorIPS1_S3_EEDpOT_
FNDA:45,_ZNSt6vectorIN15vectorfontstorm7contourI10TestVertexEESaIS3_EE17_M_realloc_insertIJEEEvN9__gnu_cxx17__normal_iteratorIPS3_S5_EEDpOT_
FNDA:887,_ZNSt6vectorIN15vectorfontstorm7segmentI10TestVertexEESaIS3_EE17_M_realloc_insertIJEEEvN9__gnu_cxx17__normal_iteratorIPS3_S5_EEDpOT_
FNDA:1322,_ZNSt6vectorIPN3p2t4EdgeESaIS2_EE17_M_realloc_insertIJS2_EEEvN9__gnu_cxx17__normal_iteratorIPS2_S4_EEDpOT_
FNDA:338,_ZNSt6vectorIPN3p2t4NodeESaIS2_EE17_M_realloc_insertIJRS2_EEEvN9__gnu_cxx17__normal_iteratorIPS2_S4_EEDpOT_
FNDA:320,_ZNSt6vectorIPN3p2t8TriangleESaIS2_EE17_M_realloc_insertIJRS2_EEEvN9__gnu_cxx17__normal_iteratorIPS2_S4_EEDpOT_
FNDA:240,_ZNSt6vectorIPN3p2t8TriangleESaIS2_EE17_M_realloc_insertIJS2_EEEvN9__gnu_cxx17__normal_iteratorIPS2_S4_EEDpOT_
FNDA:430,_ZNSt6vectorISt10shared_ptrIN3p2t5PointEESaIS3_EE17_M_realloc_insertIJPS2_EEEvN9__gnu_cxx17__normal_iteratorIPS3_S5_EEDpOT_
FNDA:40,_ZNSt6vectorISt10shared_ptrIN3p2t5PointEESaIS3_EE17_M_realloc_insertIJRKS3_EEEvN9__gnu_cxx17__normal_iteratorIPS3_S5_EEDpOT_
FNDA:0,_ZNSt6vectorISt10shared_ptrIN3p2t5PointEESaIS3_EE17_M_realloc_insertIJRPS2_EEEvN9__gnu_cxx17__normal_iteratorIPS3_S5_EEDpOT_
FNDA:52,_ZNSt6vectorIjSaIjEE17_M_realloc_insertIJRKjEEEvN9__gnu_cxx17__normal_iteratorIPjS1_EEDpOT_
FNDA:529,_ZNSt6vectorIjSaIjEE17_M_realloc_insertIJjEEEvN9__gnu_cxx17__normal_iteratorIPjS1_EEDpOT_
FNDA:169,_ZNSt6vectorIjSaIjEE17_M_realloc_insertIJmEEEvN9__gnu_cxx17__normal_iteratorIPjS1_EEDpOT_
FNDA:35,_ZNSt6vectorI10TestVertexSaIS0_EE7reserveEm
FNDA:35,_ZNSt6vectorIjSaIjEE7reserveEm
FNDA:35,_ZNSt6vectorI10TestVertexSaIS0_EE15_M_range_insertIN9__gnu_cxx17__normal_iteratorIPKS0_S2_EEEEvNS5_IPS0_S2_EET_SB_St20forward_iterator_tag
FNDA:35,_ZNSt6vectorIjSaIjEE15_M_range_insertIN9__gnu_cxx17__normal_iteratorIPKjS1_EEEEvNS4_IPjS1_EET_SA_St20forward_iterator_tag
FNF:48
FNH:43
DA:67,70
DA:70,70
DA:71,0
DA:72,70
DA:74,70
DA:79,70
DA:80,70
DA:81,70
DA:93,70
DA:94,70
DA:95,70
DA:96,70
DA:97,70
DA:98,70
DA:100,70
DA:111,24773
DA:114,24773
DA:117,17068
DA:119,17068
DA:123,7705
DA:125,24773
DA:210,278
DA:213,278
DA:217,278
DA:219,0
DA:220,0
DA:223,0
DA:224,0
DA:225,0
DA:226,0
DA:227,0
DA:228,0
DA:229,0
DA:231,0
DA:232,0
DA:235,278
DA:236,278
DA:238,16
DA:240,16
DA:241,16
DA:242,16
DA:243,16
DA:244,16
DA:245,16
DA:246,16
DA:248,262
DA:250,524
DA:251,262
DA:255,0
DA:257,0
DA:258,0
DA:260,0
DA:262,278
DA:264,278
DA:381,0
DA:385,0
DA:386,0
DA:387,0
DA:390,0
DA:392,0
DA:400,0
DA:401,0
DA:402,0
DA:404,0
DA:406,0
DA:413,0
DA:423,0
DA:424,0
DA:425,0
DA:430,0
DA:436,0
DA:438,0
DA:445,7705
DA:455,7705
DA:456,7705
DA:457,7705
DA:458,7705
DA:459,7705
DA:460,7705
DA:468,7705
DA:469,7705
DA:475,7705
DA:480,6773
DA:481,6773
DA:483,6773
DA:485,6773
DA:486,6773
DA:493,932
DA:494,932
DA:496,932
DA:500,932
DA:501,932
DA:504,0
DA:506,0
DA:507,0
DA:508,0
DA:510,0
DA:511,0
DA:512,0
DA:517,932
DA:519,7705
DA:520,7705
DA:521,7705
DA:522,7705
DA:523,7705
DA:524,7705
DA:751,70
DA:755,70
DA:757,70
DA:758,70
DA:759,70
DA:761,70
DA:762,70
DA:763,70
DA:766,0
DA:769,0
DA:770,0
DA:772,0
DA:774,0
DA:778,70
DA:781,70
DA:783,70
DA:784,70
DA:786,70
DA:789,70
DA:790,70
DA:792,70
DA:800,0
DA:801,0
DA:804,0
DA:805,0
DA:806,0
DA:811,0
DA:812,0
DA:814,0
DA:816,0
DA:819,0
DA:820,0
DA:822,0
DA:825,0
DA:826,0
DA:827,0
DA:830,0
DA:832,0
DA:833,0
DA:834,0
DA:835,0
DA:836,0
DA:839,70
LF:149
LH:82
end_of_record
TN:
SF:/usr/include/c++/13/cmath
FN:146,147,_ZSt5atan2ff
FNDA:4938,_ZSt5atan2ff
FNF:1
FNH:1
DA:146,4938
DA:147,4938
LF:2
LH:2
end_of_record
TN:
SF:/usr/include/c++/13/ext/aligned_buffer.h
FN:104,107,_ZN9__gnu_cxx16__aligned_bufferISt4pairIKDiN15vectorfontstorm5glyphI10TestVertexEEEE7_M_addrEv
FN:110,113,_ZNK9__gnu_cxx16__aligned_bufferISt4pairIKDiN15vectorfontstorm5glyphI10TestVertexEEEE7_M_addrEv
FN:116,117,_ZN9__gnu_cxx16__aligned_bufferISt4pairIKDiN15vectorfontstorm5glyphI10TestVertexEEEE6_M_ptrEv
FN:120,121,_ZNK9__gnu_cxx16__aligned_bufferISt4pairIKDiN15vectorfontstorm5glyphI10TestVertexEEEE6_M_ptrEv
FN:64,65,_ZN9__gnu_cxx16__aligned_membufIPN3p2t8TriangleEE7_M_addrEv
FN:72,73,_ZN9__gnu_cxx16__aligned_membufIPN3p2t8TriangleEE6_M_ptrEv
FNDA:111,_ZN9__gnu_cxx16__aligned_bufferISt4pairIKDiN15vectorfontstorm5glyphI10TestVertexEEEE7_M_addrEv
FNDA:18,_ZNK9__gnu_cxx16__aligned_bufferISt4pairIKDiN15vectorfontstorm5glyphI10TestVertexEEEE7_M_addrEv
FNDA:111,_ZN9__gnu_cxx16__aligned_bufferISt4pairIKDiN15vectorfontstorm5glyphI10TestVertexEEEE6_M_ptrEv
FNDA:18,_ZNK9__gnu_cxx16__aligned_bufferISt4pairIKDiN15vectorfontstorm5glyphI10TestVertexEEEE6_M_ptrEv
FNDA:6632,_ZN9__gnu_cxx16__aligned_membufIPN3p2t8TriangleEE7_M_addrEv
FNDA:6632,_ZN9__gnu_cxx16__aligned_membufIPN3p2t8TriangleEE6_M_ptrEv
FNF:6
FNH:6
DA:64,6632
DA:65,6632
DA:72,6632
DA:73,6632
DA:104,111
DA:106,111
DA:110,18
DA:112,18
DA:116,111
DA:117,111
DA:120,18
DA:121,18
LF:12
LH:12
end_of_record
TN:
SF:/usr/include/c++/13/ext/alloc_traits.h
FNF:0
FNH:0
DA:98,1405
DA:106,278
DA:118,0
LF:3
LH:2
end_of_record
TN:
SF:/usr/include/c++/13/ext/atomicity.h
FNF:0
FNH:0
DA:52,14539
DA:66,0
DA:71,0
DA:84,4840
DA:85,4840
DA:86,4840
DA:92,9699
DA:98,4840
DA:99,4840
DA:101,0
DA:108,9699
DA:112,9699
LF:12
LH:9
end_of_record
TN:
SF:/usr/include/c++/13/initializer_list
FN:69,69,_ZNKSt16initializer_listIDiE4sizeEv
FN:73,73,_ZNKSt16initializer_listIDiE5beginEv
FN:77,77,_ZNKSt16initializer_listIDiE3endEv
FNDA:4,_ZNKSt16initializer_listIDiE4sizeEv
FNDA:8,_ZNKSt16initializer_listIDiE5beginEv
FNDA:4,_ZNKSt16initializer_listIDiE3endEv
FNF:3
FNH:3
DA:69,4
DA:73,8
DA:77,4
LF:3
LH:3
end_of_record
TN:
SF:/usr/include/c++/13/limits
FN:1697,1697,_ZNSt14numeric_limitsIfE7epsilonEv
FNDA:3736,_ZNSt14numeric_limitsIfE7epsilonEv
FNF:1
FNH:1
DA:1697,3736
LF:1
LH:1
end_of_record
TN:
SF:/usr/include/c++/13/new
FN:174,175,_ZnwmPv
FN:180,180,_ZdlPvS_
FNDA:60839,_ZnwmPv
FNDA:0,_ZdlPvS_
FNF:2
FNH:1
DA:174,60839
DA:175,60839
DA:180,0
LF:3
LH:2
end_of_record
TN:
SF:/usr/include/x86_64-linux-gnu/c++/13/bits/c++config.h
FN:540,551,_ZSt23__is_constant_evaluatedv
FNDA:2315,_ZSt23__is_constant_evaluatedv
FNF:1
FNH:1
DA:540,2315
DA:547,2315
LF:2
LH:2
end_of_record
